Archive member included because of file (symbol)

C:/Program Files (x86)/Microchip/MPLAB C32 Suite/bin/../lib/gcc/pic32mx/3.4.4/size\libgcc.a(_udivdi3.o)
                              Objects - TCPIP Demo App - C32 - PIC32_ENET_SK_DM320004_INTERNAL_ETHERNET\TCPPerformanceTest.o (__udivdi3)
C:/Program Files (x86)/Microchip/MPLAB C32 Suite/bin/../lib/gcc/pic32mx/3.4.4/../../../../pic32mx/lib/size\libc.a(memcmp.o)
                              Objects - TCPIP Demo App - C32 - PIC32_ENET_SK_DM320004_INTERNAL_ETHERNET\ETHPIC32IntMac.o (memcmp)
C:/Program Files (x86)/Microchip/MPLAB C32 Suite/bin/../lib/gcc/pic32mx/3.4.4/../../../../pic32mx/lib/size\libc.a(memcpy.o)
                              Objects - TCPIP Demo App - C32 - PIC32_ENET_SK_DM320004_INTERNAL_ETHERNET\Announce.o (memcpy)
C:/Program Files (x86)/Microchip/MPLAB C32 Suite/bin/../lib/gcc/pic32mx/3.4.4/../../../../pic32mx/lib/size\libc.a(memset.o)
                              Objects - TCPIP Demo App - C32 - PIC32_ENET_SK_DM320004_INTERNAL_ETHERNET\BerkeleyAPI.o (memset)
C:/Program Files (x86)/Microchip/MPLAB C32 Suite/bin/../lib/gcc/pic32mx/3.4.4/../../../../pic32mx/lib/size\libc.a(strcmp.o)
                              Objects - TCPIP Demo App - C32 - PIC32_ENET_SK_DM320004_INTERNAL_ETHERNET\DynDNS.o (strcmp)
C:/Program Files (x86)/Microchip/MPLAB C32 Suite/bin/../lib/gcc/pic32mx/3.4.4/../../../../pic32mx/lib/size\libc.a(strcpy.o)
                              Objects - TCPIP Demo App - C32 - PIC32_ENET_SK_DM320004_INTERNAL_ETHERNET\HTTP2.o (strcpy)
C:/Program Files (x86)/Microchip/MPLAB C32 Suite/bin/../lib/gcc/pic32mx/3.4.4/../../../../pic32mx/lib/size\libc.a(strlen.o)
                              Objects - TCPIP Demo App - C32 - PIC32_ENET_SK_DM320004_INTERNAL_ETHERNET\DynDNS.o (strlen)
C:/Program Files (x86)/Microchip/MPLAB C32 Suite/bin/../lib/gcc/pic32mx/3.4.4/../../../../pic32mx/lib/size\libc.a(general-exception.o)
                              C:/Program Files (x86)/Microchip/MPLAB C32 Suite/bin/../lib/gcc/pic32mx/3.4.4/../../../../pic32mx/lib/size/crt0.o (_general_exception_context)
C:/Program Files (x86)/Microchip/MPLAB C32 Suite/bin/../lib/gcc/pic32mx/3.4.4/../../../../pic32mx/lib/size\libc.a(atoi.o)
                              Objects - TCPIP Demo App - C32 - PIC32_ENET_SK_DM320004_INTERNAL_ETHERNET\SMTP.o (atoi)
C:/Program Files (x86)/Microchip/MPLAB C32 Suite/bin/../lib/gcc/pic32mx/3.4.4/../../../../pic32mx/lib/size\libc.a(atol.o)
                              Objects - TCPIP Demo App - C32 - PIC32_ENET_SK_DM320004_INTERNAL_ETHERNET\HTTP2.o (atol)
C:/Program Files (x86)/Microchip/MPLAB C32 Suite/bin/../lib/gcc/pic32mx/3.4.4/../../../../pic32mx/lib/size\libc.a(calloc.o)
                              Objects - TCPIP Demo App - C32 - PIC32_ENET_SK_DM320004_INTERNAL_ETHERNET\ETHPIC32IntMac.o (calloc)
C:/Program Files (x86)/Microchip/MPLAB C32 Suite/bin/../lib/gcc/pic32mx/3.4.4/../../../../pic32mx/lib/size\libc.a(ctype.o)
                              C:/Program Files (x86)/Microchip/MPLAB C32 Suite/bin/../lib/gcc/pic32mx/3.4.4/../../../../pic32mx/lib/size\libc.a(atoi.o) (_ctype)
C:/Program Files (x86)/Microchip/MPLAB C32 Suite/bin/../lib/gcc/pic32mx/3.4.4/../../../../pic32mx/lib/size\libc.a(malloc.o)
                              C:/Program Files (x86)/Microchip/MPLAB C32 Suite/bin/../lib/gcc/pic32mx/3.4.4/../../../../pic32mx/lib/size\libc.a(calloc.o) (malloc)
C:/Program Files (x86)/Microchip/MPLAB C32 Suite/bin/../lib/gcc/pic32mx/3.4.4/../../../../pic32mx/lib/size\libc.a(strchr.o)
                              Objects - TCPIP Demo App - C32 - PIC32_ENET_SK_DM320004_INTERNAL_ETHERNET\SMTP.o (strchr)
C:/Program Files (x86)/Microchip/MPLAB C32 Suite/bin/../lib/gcc/pic32mx/3.4.4/../../../../pic32mx/lib/size\libc.a(strstr.o)
                              Objects - TCPIP Demo App - C32 - PIC32_ENET_SK_DM320004_INTERNAL_ETHERNET\SMTP.o (strstr)
C:/Program Files (x86)/Microchip/MPLAB C32 Suite/bin/../lib/gcc/pic32mx/3.4.4/../../../../pic32mx/lib/size\libc.a(sbrk.o)
                              C:/Program Files (x86)/Microchip/MPLAB C32 Suite/bin/../lib/gcc/pic32mx/3.4.4/../../../../pic32mx/lib/size\libc.a(malloc.o) (sbrk)
C:/Program Files (x86)/Microchip/MPLAB C32 Suite/bin/../lib/gcc/pic32mx/3.4.4/../../../../pic32mx/lib/size\libc.a(default-bootstrap-exception-handler.o)
                              C:/Program Files (x86)/Microchip/MPLAB C32 Suite/bin/../lib/gcc/pic32mx/3.4.4/../../../../pic32mx/lib/size/crt0.o (_bootstrap_exception_handler)
C:/Program Files (x86)/Microchip/MPLAB C32 Suite/bin/../lib/gcc/pic32mx/3.4.4/../../../../pic32mx/lib/size\libc.a(default-on-reset.o)
                              C:/Program Files (x86)/Microchip/MPLAB C32 Suite/bin/../lib/gcc/pic32mx/3.4.4/../../../../pic32mx/lib/size/crt0.o (_on_reset)
C:/Program Files (x86)/Microchip/MPLAB C32 Suite/bin/../lib/gcc/pic32mx/3.4.4/../../../../pic32mx/lib/size\libc.a(default-on-bootstrap.o)
                              C:/Program Files (x86)/Microchip/MPLAB C32 Suite/bin/../lib/gcc/pic32mx/3.4.4/../../../../pic32mx/lib/size/crt0.o (_on_bootstrap)
C:/Program Files (x86)/Microchip/MPLAB C32 Suite/bin/../lib/gcc/pic32mx/3.4.4/../../../../pic32mx/lib/size\libc.a(default-nmi-handler.o)
                              C:/Program Files (x86)/Microchip/MPLAB C32 Suite/bin/../lib/gcc/pic32mx/3.4.4/../../../../pic32mx/lib/size/crt0.o (_nmi_handler)
C:/Program Files (x86)/Microchip/MPLAB C32 Suite/bin/../lib/gcc/pic32mx/3.4.4/../../../../pic32mx/lib/size\libc.a(errno.o)
                              C:/Program Files (x86)/Microchip/MPLAB C32 Suite/bin/../lib/gcc/pic32mx/3.4.4/../../../../pic32mx/lib/size\libc.a(sbrk.o) (errno)
C:/Program Files (x86)/Microchip/MPLAB C32 Suite/bin/../lib/gcc/pic32mx/3.4.4/../../../../pic32mx/lib/size\libc.a(strncmp.o)
                              C:/Program Files (x86)/Microchip/MPLAB C32 Suite/bin/../lib/gcc/pic32mx/3.4.4/../../../../pic32mx/lib/size\libc.a(strstr.o) (strncmp)
C:/Program Files (x86)/Microchip/MPLAB C32 Suite/bin/../lib/gcc/pic32mx/3.4.4/../../../../pic32mx/lib/size\libmchp_peripheral.a(read_core_timer_lib.o)
                              Objects - TCPIP Demo App - C32 - PIC32_ENET_SK_DM320004_INTERNAL_ETHERNET\ETHPIC32ExtPhy.o (ReadCoreTimer)
C:/Program Files (x86)/Microchip/MPLAB C32 Suite/bin/../lib/gcc/pic32mx/3.4.4/../../../../pic32mx/lib/size\libmchp_peripheral_32MX795F512L.a(eth_ack_packet_lib.o)
                              Objects - TCPIP Demo App - C32 - PIC32_ENET_SK_DM320004_INTERNAL_ETHERNET\ETHPIC32IntMac.o (EthTxAcknowledgeBuffer)
C:/Program Files (x86)/Microchip/MPLAB C32 Suite/bin/../lib/gcc/pic32mx/3.4.4/../../../../pic32mx/lib/size\libmchp_peripheral_32MX795F512L.a(eth_descriptors_add_lib.o)
                              C:/Program Files (x86)/Microchip/MPLAB C32 Suite/bin/../lib/gcc/pic32mx/3.4.4/../../../../pic32mx/lib/size\libmchp_peripheral_32MX795F512L.a(eth_ack_packet_lib.o) (_EthRxBusyList)
C:/Program Files (x86)/Microchip/MPLAB C32 Suite/bin/../lib/gcc/pic32mx/3.4.4/../../../../pic32mx/lib/size\libmchp_peripheral_32MX795F512L.a(eth_init_lib.o)
                              Objects - TCPIP Demo App - C32 - PIC32_ENET_SK_DM320004_INTERNAL_ETHERNET\ETHPIC32IntMac.o (EthInit)
C:/Program Files (x86)/Microchip/MPLAB C32 Suite/bin/../lib/gcc/pic32mx/3.4.4/../../../../pic32mx/lib/size\libmchp_peripheral_32MX795F512L.a(eth_mac_open_lib.o)
                              Objects - TCPIP Demo App - C32 - PIC32_ENET_SK_DM320004_INTERNAL_ETHERNET\ETHPIC32IntMac.o (EthMACOpen)
C:/Program Files (x86)/Microchip/MPLAB C32 Suite/bin/../lib/gcc/pic32mx/3.4.4/../../../../pic32mx/lib/size\libmchp_peripheral_32MX795F512L.a(eth_mac_set_address_max_lib.o)
                              Objects - TCPIP Demo App - C32 - PIC32_ENET_SK_DM320004_INTERNAL_ETHERNET\ETHPIC32IntMac.o (EthMACSetAddress)
C:/Program Files (x86)/Microchip/MPLAB C32 Suite/bin/../lib/gcc/pic32mx/3.4.4/../../../../pic32mx/lib/size\libmchp_peripheral_32MX795F512L.a(eth_rx_buffers_append_lib.o)
                              Objects - TCPIP Demo App - C32 - PIC32_ENET_SK_DM320004_INTERNAL_ETHERNET\ETHPIC32IntMac.o (EthRxBuffersAppend)
C:/Program Files (x86)/Microchip/MPLAB C32 Suite/bin/../lib/gcc/pic32mx/3.4.4/../../../../pic32mx/lib/size\libmchp_peripheral_32MX795F512L.a(eth_rx_filters_lib.o)
                              Objects - TCPIP Demo App - C32 - PIC32_ENET_SK_DM320004_INTERNAL_ETHERNET\ETHPIC32IntMac.o (EthRxFiltersSet)
C:/Program Files (x86)/Microchip/MPLAB C32 Suite/bin/../lib/gcc/pic32mx/3.4.4/../../../../pic32mx/lib/size\libmchp_peripheral_32MX795F512L.a(eth_rx_get_packet_lib.o)
                              Objects - TCPIP Demo App - C32 - PIC32_ENET_SK_DM320004_INTERNAL_ETHERNET\ETHPIC32IntMac.o (EthRxGetBuffer)
C:/Program Files (x86)/Microchip/MPLAB C32 Suite/bin/../lib/gcc/pic32mx/3.4.4/../../../../pic32mx/lib/size\libmchp_peripheral_32MX795F512L.a(eth_rx_set_buffer_size_lib.o)
                              Objects - TCPIP Demo App - C32 - PIC32_ENET_SK_DM320004_INTERNAL_ETHERNET\ETHPIC32IntMac.o (EthRxSetBufferSize)
C:/Program Files (x86)/Microchip/MPLAB C32 Suite/bin/../lib/gcc/pic32mx/3.4.4/../../../../pic32mx/lib/size\libmchp_peripheral_32MX795F512L.a(eth_tx_packet_lib.o)
                              Objects - TCPIP Demo App - C32 - PIC32_ENET_SK_DM320004_INTERNAL_ETHERNET\ETHPIC32IntMac.o (EthTxSendBuffer)
C:/Program Files (x86)/Microchip/MPLAB C32 Suite/bin/../lib/gcc/pic32mx/3.4.4/../../../../pic32mx/lib/size\libmchp_peripheral_32MX795F512L.a(_eth_append_busy_list_lib.o)
                              C:/Program Files (x86)/Microchip/MPLAB C32 Suite/bin/../lib/gcc/pic32mx/3.4.4/../../../../pic32mx/lib/size\libmchp_peripheral_32MX795F512L.a(eth_ack_packet_lib.o) (_EthAppendBusyList)
C:/Program Files (x86)/Microchip/MPLAB C32 Suite/bin/../lib/gcc/pic32mx/3.4.4/../../../../pic32mx/lib/size\libmchp_peripheral_32MX795F512L.a(eth_miim_access.o)
                              Objects - TCPIP Demo App - C32 - PIC32_ENET_SK_DM320004_INTERNAL_ETHERNET\ETHPIC32ExtPhy.o (EthMIIMReadStart)
C:/Program Files (x86)/Microchip/MPLAB C32 Suite/bin/../lib/gcc/pic32mx/3.4.4/../../../../pic32mx/lib/size\libmchp_peripheral_32MX795F512L.a(soft_reset_lib.o)
                              Objects - TCPIP Demo App - C32 - PIC32_ENET_SK_DM320004_INTERNAL_ETHERNET\Reboot.o (SoftReset)
C:/Program Files (x86)/Microchip/MPLAB C32 Suite/bin/../lib/gcc/pic32mx/3.4.4/../../../../pic32mx/lib/size\libmchp_peripheral_32MX795F512L.a(pcache.o)
                              Objects - TCPIP Demo App - C32 - PIC32_ENET_SK_DM320004_INTERNAL_ETHERNET\MainDemo.o (CheKseg0CacheOn)
C:/Program Files (x86)/Microchip/MPLAB C32 Suite/bin/../lib/gcc/pic32mx/3.4.4/../../../../pic32mx/lib/size\libmchp_peripheral_32MX795F512L.a(int_disable_interrupts_lib.o)
                              Objects - TCPIP Demo App - C32 - PIC32_ENET_SK_DM320004_INTERNAL_ETHERNET\MainDemo.o (INTDisableInterrupts)
C:/Program Files (x86)/Microchip/MPLAB C32 Suite/bin/../lib/gcc/pic32mx/3.4.4/../../../../pic32mx/lib/size\libmchp_peripheral_32MX795F512L.a(int_restore_interrupts_lib.o)
                              Objects - TCPIP Demo App - C32 - PIC32_ENET_SK_DM320004_INTERNAL_ETHERNET\MainDemo.o (INTRestoreInterrupts)
C:/Program Files (x86)/Microchip/MPLAB C32 Suite/bin/../lib/gcc/pic32mx/3.4.4/../../../../pic32mx/lib/size\libmchp_peripheral_32MX795F512L.a(int_enable_mv_int_lib.o)
                              Objects - TCPIP Demo App - C32 - PIC32_ENET_SK_DM320004_INTERNAL_ETHERNET\MainDemo.o (INTEnableSystemMultiVectoredInt)
C:/Program Files (x86)/Microchip/MPLAB C32 Suite/bin/../lib/gcc/pic32mx/3.4.4/../../../../pic32mx/lib/size\libmchp_peripheral_32MX795F512L.a(int_tbl_lib.o)
                              C:/Program Files (x86)/Microchip/MPLAB C32 Suite/bin/../lib/gcc/pic32mx/3.4.4/../../../../pic32mx/lib/size\libmchp_peripheral_32MX795F512L.a(eth_init_lib.o) (INTClearFlag)
C:/Program Files (x86)/Microchip/MPLAB C32 Suite/bin/../lib/gcc/pic32mx/3.4.4/../../../../pic32mx/lib/size\libmchp_peripheral_32MX795F512L.a(port_set_pins_digital_in_lib.o)
                              Objects - TCPIP Demo App - C32 - PIC32_ENET_SK_DM320004_INTERNAL_ETHERNET\ETHPIC32ExtPhy.o (PORTSetPinsDigitalIn)
C:/Program Files (x86)/Microchip/MPLAB C32 Suite/bin/../lib/gcc/pic32mx/3.4.4/../../../../pic32mx/lib/size\libmchp_peripheral_32MX795F512L.a(port_set_pins_digital_out_lib.o)
                              Objects - TCPIP Demo App - C32 - PIC32_ENET_SK_DM320004_INTERNAL_ETHERNET\ETHPIC32ExtPhy.o (PORTSetPinsDigitalOut)
C:/Program Files (x86)/Microchip/MPLAB C32 Suite/bin/../lib/gcc/pic32mx/3.4.4/../../../../pic32mx/lib/size\libmchp_peripheral_32MX795F512L.a(_ports_tbl_libp.o)
                              C:/Program Files (x86)/Microchip/MPLAB C32 Suite/bin/../lib/gcc/pic32mx/3.4.4/../../../../pic32mx/lib/size\libmchp_peripheral_32MX795F512L.a(port_set_pins_digital_in_lib.o) (PortRegTbl)
C:/Program Files (x86)/Microchip/MPLAB C32 Suite/bin/../lib/gcc/pic32mx/3.4.4/../../../../pic32mx/lib/size\libmchp_peripheral_32MX795F512L.a(int_enable_interrupts_lib.o)
                              C:/Program Files (x86)/Microchip/MPLAB C32 Suite/bin/../lib/gcc/pic32mx/3.4.4/../../../../pic32mx/lib/size\libmchp_peripheral_32MX795F512L.a(int_enable_mv_int_lib.o) (INTEnableInterrupts)

Allocating common symbols
Common symbol       size              file

activeUDPSocket     0x1               Objects - TCPIP Demo App - C32 - PIC32_ENET_SK_DM320004_INTERNAL_ETHERNET\UDP.o
curHTTP             0x8c              Objects - TCPIP Demo App - C32 - PIC32_ENET_SK_DM320004_INTERNAL_ETHERNET\HTTP2.o
UDPTxCount          0x2               Objects - TCPIP Demo App - C32 - PIC32_ENET_SK_DM320004_INTERNAL_ETHERNET\UDP.o
SMTPClient          0x2c              Objects - TCPIP Demo App - C32 - PIC32_ENET_SK_DM320004_INTERNAL_ETHERNET\SMTP.o
curHTTPID           0x1               Objects - TCPIP Demo App - C32 - PIC32_ENET_SK_DM320004_INTERNAL_ETHERNET\HTTP2.o
DDNSClient          0x20              Objects - TCPIP Demo App - C32 - PIC32_ENET_SK_DM320004_INTERNAL_ETHERNET\DynDNS.o
_PhyAdd             0x4               Objects - TCPIP Demo App - C32 - PIC32_ENET_SK_DM320004_INTERNAL_ETHERNET\ETHPIC32ExtPhy.o
AN0String           0x8               Objects - TCPIP Demo App - C32 - PIC32_ENET_SK_DM320004_INTERNAL_ETHERNET\MainDemo.o
UDPSocketInfo       0x8c              Objects - TCPIP Demo App - C32 - PIC32_ENET_SK_DM320004_INTERNAL_ETHERNET\UDP.o
lastBlock           0x40              Objects - TCPIP Demo App - C32 - PIC32_ENET_SK_DM320004_INTERNAL_ETHERNET\Hashes.o
remoteNode          0xa               Objects - TCPIP Demo App - C32 - PIC32_ENET_SK_DM320004_INTERNAL_ETHERNET\StackTsk.o
UDPRxCount          0x2               Objects - TCPIP Demo App - C32 - PIC32_ENET_SK_DM320004_INTERNAL_ETHERNET\UDP.o
httpStubs           0x10              Objects - TCPIP Demo App - C32 - PIC32_ENET_SK_DM320004_INTERNAL_ETHERNET\HTTP2.o
AppConfig           0x33              Objects - TCPIP Demo App - C32 - PIC32_ENET_SK_DM320004_INTERNAL_ETHERNET\MainDemo.o

Microchip PIC32 Memory-Usage Report

kseg0 Program-Memory Usage
section                    address  length [bytes]      (dec)  Description
-------                 ----------  -------------------------  -----------
.text                   0x9d000000        0x23888      145544  Application's executable code 
.rodata                 0x9d023888         0x9910       39184  Read-only constant data 
.eh_frame               0x9d02d198           0x20          32  Stack unwind info 
.data                   0x9d02d1b8          0x11c         284  Data-initialization template 
.sdata                  0x9d02d2d4           0x34          52  Small data-initialization template 
      Total kseg0_program_mem used  :     0x2d308      185096  35.3% of 0x80000

kseg0 Boot-Memory Usage
section                    address  length [bytes]      (dec)  Description
-------                 ----------  -------------------------  -----------
.startup                0x9fc00490          0x1e0         480  C startup code 
         Total kseg0_boot_mem used  :       0x1e0         480  19.9% of 0x970

Exception-Memory Usage 
section                    address  length [bytes]      (dec)  Description
-------                 ----------  -------------------------  -----------
.app_excpt              0x9fc01180           0x10          16  General-Exception handler 
.vector_4               0x9fc01280            0x8           8  Interrupt Vector 4 
          Total exception_mem used  :        0x18          24  0.6% of 0x1000

kseg1 Boot-Memory Usage
section                    address  length [bytes]      (dec)  Description
-------                 ----------  -------------------------  -----------
.reset                  0xbfc00000           0x10          16  Reset handler 
.bev_excpt              0xbfc00380           0x10          16  BEV-Exception handler 
         Total kseg1_boot_mem used  :        0x20          32  2.7% of 0x490
        --------------------------------------------------------------------------
         Total Program Memory used  :     0x2d520      185632  34.9% of 0x81e00
        --------------------------------------------------------------------------


kseg1 Data-Memory Usage
section                    address  length [bytes]      (dec)  Description
-------                 ----------  -------------------------  -----------
.data                   0xa0000000          0x11c         284  Initialized data 
.sdata                  0xa000011c           0x34          52  Small initialized data 
.sbss                   0xa0000150          0x1c8         456  Small uninitialized data 
.bss                    0xa0000318         0x8374       33652  Uninitialized data 
.heap                   0xa0008690         0x3e80       16000  Dynamic Memory heap 
.stack                  0xa000c510          0x800        2048  Minimum space reserved for stack 
         Total kseg1_data_mem used  :      0xcd0c       52492  40.0% of 0x20000
        --------------------------------------------------------------------------
            Total Data Memory used  :      0xcd0c       52492  40.0% of 0x20000
        --------------------------------------------------------------------------

Discarded input sections

 .data          0x00000000        0x0 C:/Program Files (x86)/Microchip/MPLAB C32 Suite/bin/../lib/gcc/pic32mx/3.4.4/../../../../pic32mx/lib/size/crt0.o
 .bss           0x00000000        0x0 C:/Program Files (x86)/Microchip/MPLAB C32 Suite/bin/../lib/gcc/pic32mx/3.4.4/../../../../pic32mx/lib/size/crt0.o
 .reginfo       0x00000000       0x18 C:/Program Files (x86)/Microchip/MPLAB C32 Suite/bin/../lib/gcc/pic32mx/3.4.4/../../../../pic32mx/lib/size/crt0.o
 .pdr           0x00000000       0xa0 C:/Program Files (x86)/Microchip/MPLAB C32 Suite/bin/../lib/gcc/pic32mx/3.4.4/../../../../pic32mx/lib/size/crt0.o
 .data          0x00000000        0x0 Objects - TCPIP Demo App - C32 - PIC32_ENET_SK_DM320004_INTERNAL_ETHERNET\Announce.o
 .bss           0x00000000        0x0 Objects - TCPIP Demo App - C32 - PIC32_ENET_SK_DM320004_INTERNAL_ETHERNET\Announce.o
 .reginfo       0x00000000       0x18 Objects - TCPIP Demo App - C32 - PIC32_ENET_SK_DM320004_INTERNAL_ETHERNET\Announce.o
 .pdr           0x00000000       0x40 Objects - TCPIP Demo App - C32 - PIC32_ENET_SK_DM320004_INTERNAL_ETHERNET\Announce.o
 .text          0x00000000        0x0 Objects - TCPIP Demo App - C32 - PIC32_ENET_SK_DM320004_INTERNAL_ETHERNET\ARCFOUR.o
 .data          0x00000000        0x0 Objects - TCPIP Demo App - C32 - PIC32_ENET_SK_DM320004_INTERNAL_ETHERNET\ARCFOUR.o
 .bss           0x00000000        0x0 Objects - TCPIP Demo App - C32 - PIC32_ENET_SK_DM320004_INTERNAL_ETHERNET\ARCFOUR.o
 .reginfo       0x00000000       0x18 Objects - TCPIP Demo App - C32 - PIC32_ENET_SK_DM320004_INTERNAL_ETHERNET\ARCFOUR.o
 .pdr           0x00000000        0x0 Objects - TCPIP Demo App - C32 - PIC32_ENET_SK_DM320004_INTERNAL_ETHERNET\ARCFOUR.o
 .data          0x00000000        0x0 Objects - TCPIP Demo App - C32 - PIC32_ENET_SK_DM320004_INTERNAL_ETHERNET\ARP.o
 .reginfo       0x00000000       0x18 Objects - TCPIP Demo App - C32 - PIC32_ENET_SK_DM320004_INTERNAL_ETHERNET\ARP.o
 .pdr           0x00000000       0xc0 Objects - TCPIP Demo App - C32 - PIC32_ENET_SK_DM320004_INTERNAL_ETHERNET\ARP.o
 .text          0x00000000        0x0 Objects - TCPIP Demo App - C32 - PIC32_ENET_SK_DM320004_INTERNAL_ETHERNET\AutoIP.o
 .data          0x00000000        0x0 Objects - TCPIP Demo App - C32 - PIC32_ENET_SK_DM320004_INTERNAL_ETHERNET\AutoIP.o
 .bss           0x00000000        0x0 Objects - TCPIP Demo App - C32 - PIC32_ENET_SK_DM320004_INTERNAL_ETHERNET\AutoIP.o
 .reginfo       0x00000000       0x18 Objects - TCPIP Demo App - C32 - PIC32_ENET_SK_DM320004_INTERNAL_ETHERNET\AutoIP.o
 .pdr           0x00000000        0x0 Objects - TCPIP Demo App - C32 - PIC32_ENET_SK_DM320004_INTERNAL_ETHERNET\AutoIP.o
 .data          0x00000000        0x0 Objects - TCPIP Demo App - C32 - PIC32_ENET_SK_DM320004_INTERNAL_ETHERNET\BerkeleyAPI.o
 .reginfo       0x00000000       0x18 Objects - TCPIP Demo App - C32 - PIC32_ENET_SK_DM320004_INTERNAL_ETHERNET\BerkeleyAPI.o
 .pdr           0x00000000      0x1a0 Objects - TCPIP Demo App - C32 - PIC32_ENET_SK_DM320004_INTERNAL_ETHERNET\BerkeleyAPI.o
 .text          0x00000000        0x0 Objects - TCPIP Demo App - C32 - PIC32_ENET_SK_DM320004_INTERNAL_ETHERNET\BigInt.o
 .data          0x00000000        0x0 Objects - TCPIP Demo App - C32 - PIC32_ENET_SK_DM320004_INTERNAL_ETHERNET\BigInt.o
 .bss           0x00000000        0x0 Objects - TCPIP Demo App - C32 - PIC32_ENET_SK_DM320004_INTERNAL_ETHERNET\BigInt.o
 .reginfo       0x00000000       0x18 Objects - TCPIP Demo App - C32 - PIC32_ENET_SK_DM320004_INTERNAL_ETHERNET\BigInt.o
 .pdr           0x00000000        0x0 Objects - TCPIP Demo App - C32 - PIC32_ENET_SK_DM320004_INTERNAL_ETHERNET\BigInt.o
 .data          0x00000000        0x0 Objects - TCPIP Demo App - C32 - PIC32_ENET_SK_DM320004_INTERNAL_ETHERNET\Delay.o
 .bss           0x00000000        0x0 Objects - TCPIP Demo App - C32 - PIC32_ENET_SK_DM320004_INTERNAL_ETHERNET\Delay.o
 .reginfo       0x00000000       0x18 Objects - TCPIP Demo App - C32 - PIC32_ENET_SK_DM320004_INTERNAL_ETHERNET\Delay.o
 .pdr           0x00000000       0x40 Objects - TCPIP Demo App - C32 - PIC32_ENET_SK_DM320004_INTERNAL_ETHERNET\Delay.o
 .text          0x00000000        0x0 Objects - TCPIP Demo App - C32 - PIC32_ENET_SK_DM320004_INTERNAL_ETHERNET\DHCP.o
 .data          0x00000000        0x0 Objects - TCPIP Demo App - C32 - PIC32_ENET_SK_DM320004_INTERNAL_ETHERNET\DHCP.o
 .bss           0x00000000        0x0 Objects - TCPIP Demo App - C32 - PIC32_ENET_SK_DM320004_INTERNAL_ETHERNET\DHCP.o
 .reginfo       0x00000000       0x18 Objects - TCPIP Demo App - C32 - PIC32_ENET_SK_DM320004_INTERNAL_ETHERNET\DHCP.o
 .pdr           0x00000000        0x0 Objects - TCPIP Demo App - C32 - PIC32_ENET_SK_DM320004_INTERNAL_ETHERNET\DHCP.o
 .text          0x00000000        0x0 Objects - TCPIP Demo App - C32 - PIC32_ENET_SK_DM320004_INTERNAL_ETHERNET\DHCPs.o
 .data          0x00000000        0x0 Objects - TCPIP Demo App - C32 - PIC32_ENET_SK_DM320004_INTERNAL_ETHERNET\DHCPs.o
 .bss           0x00000000        0x0 Objects - TCPIP Demo App - C32 - PIC32_ENET_SK_DM320004_INTERNAL_ETHERNET\DHCPs.o
 .reginfo       0x00000000       0x18 Objects - TCPIP Demo App - C32 - PIC32_ENET_SK_DM320004_INTERNAL_ETHERNET\DHCPs.o
 .pdr           0x00000000        0x0 Objects - TCPIP Demo App - C32 - PIC32_ENET_SK_DM320004_INTERNAL_ETHERNET\DHCPs.o
 .data          0x00000000        0x0 Objects - TCPIP Demo App - C32 - PIC32_ENET_SK_DM320004_INTERNAL_ETHERNET\DNS.o
 .reginfo       0x00000000       0x18 Objects - TCPIP Demo App - C32 - PIC32_ENET_SK_DM320004_INTERNAL_ETHERNET\DNS.o
 .pdr           0x00000000       0xc0 Objects - TCPIP Demo App - C32 - PIC32_ENET_SK_DM320004_INTERNAL_ETHERNET\DNS.o
 .text          0x00000000        0x0 Objects - TCPIP Demo App - C32 - PIC32_ENET_SK_DM320004_INTERNAL_ETHERNET\DNSs.o
 .data          0x00000000        0x0 Objects - TCPIP Demo App - C32 - PIC32_ENET_SK_DM320004_INTERNAL_ETHERNET\DNSs.o
 .bss           0x00000000        0x0 Objects - TCPIP Demo App - C32 - PIC32_ENET_SK_DM320004_INTERNAL_ETHERNET\DNSs.o
 .reginfo       0x00000000       0x18 Objects - TCPIP Demo App - C32 - PIC32_ENET_SK_DM320004_INTERNAL_ETHERNET\DNSs.o
 .pdr           0x00000000        0x0 Objects - TCPIP Demo App - C32 - PIC32_ENET_SK_DM320004_INTERNAL_ETHERNET\DNSs.o
 .reginfo       0x00000000       0x18 Objects - TCPIP Demo App - C32 - PIC32_ENET_SK_DM320004_INTERNAL_ETHERNET\DynDNS.o
 .pdr           0x00000000       0xc0 Objects - TCPIP Demo App - C32 - PIC32_ENET_SK_DM320004_INTERNAL_ETHERNET\DynDNS.o
 .text          0x00000000        0x0 Objects - TCPIP Demo App - C32 - PIC32_ENET_SK_DM320004_INTERNAL_ETHERNET\ENC28J60.o
 .data          0x00000000        0x0 Objects - TCPIP Demo App - C32 - PIC32_ENET_SK_DM320004_INTERNAL_ETHERNET\ENC28J60.o
 .bss           0x00000000        0x0 Objects - TCPIP Demo App - C32 - PIC32_ENET_SK_DM320004_INTERNAL_ETHERNET\ENC28J60.o
 .reginfo       0x00000000       0x18 Objects - TCPIP Demo App - C32 - PIC32_ENET_SK_DM320004_INTERNAL_ETHERNET\ENC28J60.o
 .pdr           0x00000000        0x0 Objects - TCPIP Demo App - C32 - PIC32_ENET_SK_DM320004_INTERNAL_ETHERNET\ENC28J60.o
 .text          0x00000000        0x0 Objects - TCPIP Demo App - C32 - PIC32_ENET_SK_DM320004_INTERNAL_ETHERNET\ENCX24J600.o
 .data          0x00000000        0x0 Objects - TCPIP Demo App - C32 - PIC32_ENET_SK_DM320004_INTERNAL_ETHERNET\ENCX24J600.o
 .bss           0x00000000        0x0 Objects - TCPIP Demo App - C32 - PIC32_ENET_SK_DM320004_INTERNAL_ETHERNET\ENCX24J600.o
 .reginfo       0x00000000       0x18 Objects - TCPIP Demo App - C32 - PIC32_ENET_SK_DM320004_INTERNAL_ETHERNET\ENCX24J600.o
 .pdr           0x00000000        0x0 Objects - TCPIP Demo App - C32 - PIC32_ENET_SK_DM320004_INTERNAL_ETHERNET\ENCX24J600.o
 .data          0x00000000        0x0 Objects - TCPIP Demo App - C32 - PIC32_ENET_SK_DM320004_INTERNAL_ETHERNET\ETHPIC32ExtPhy.o
 .bss           0x00000000        0x0 Objects - TCPIP Demo App - C32 - PIC32_ENET_SK_DM320004_INTERNAL_ETHERNET\ETHPIC32ExtPhy.o
 .reginfo       0x00000000       0x18 Objects - TCPIP Demo App - C32 - PIC32_ENET_SK_DM320004_INTERNAL_ETHERNET\ETHPIC32ExtPhy.o
 .pdr           0x00000000      0x180 Objects - TCPIP Demo App - C32 - PIC32_ENET_SK_DM320004_INTERNAL_ETHERNET\ETHPIC32ExtPhy.o
 .data          0x00000000        0x0 Objects - TCPIP Demo App - C32 - PIC32_ENET_SK_DM320004_INTERNAL_ETHERNET\ETHPIC32ExtPhyDP83848.o
 .bss           0x00000000        0x0 Objects - TCPIP Demo App - C32 - PIC32_ENET_SK_DM320004_INTERNAL_ETHERNET\ETHPIC32ExtPhyDP83848.o
 .reginfo       0x00000000       0x18 Objects - TCPIP Demo App - C32 - PIC32_ENET_SK_DM320004_INTERNAL_ETHERNET\ETHPIC32ExtPhyDP83848.o
 .pdr           0x00000000       0x80 Objects - TCPIP Demo App - C32 - PIC32_ENET_SK_DM320004_INTERNAL_ETHERNET\ETHPIC32ExtPhyDP83848.o
 .data          0x00000000        0x0 Objects - TCPIP Demo App - C32 - PIC32_ENET_SK_DM320004_INTERNAL_ETHERNET\ETHPIC32IntMac.o
 .reginfo       0x00000000       0x18 Objects - TCPIP Demo App - C32 - PIC32_ENET_SK_DM320004_INTERNAL_ETHERNET\ETHPIC32IntMac.o
 .pdr           0x00000000      0x320 Objects - TCPIP Demo App - C32 - PIC32_ENET_SK_DM320004_INTERNAL_ETHERNET\ETHPIC32IntMac.o
 .text          0x00000000        0x0 Objects - TCPIP Demo App - C32 - PIC32_ENET_SK_DM320004_INTERNAL_ETHERNET\FileSystem.o
 .data          0x00000000        0x0 Objects - TCPIP Demo App - C32 - PIC32_ENET_SK_DM320004_INTERNAL_ETHERNET\FileSystem.o
 .bss           0x00000000        0x0 Objects - TCPIP Demo App - C32 - PIC32_ENET_SK_DM320004_INTERNAL_ETHERNET\FileSystem.o
 .reginfo       0x00000000       0x18 Objects - TCPIP Demo App - C32 - PIC32_ENET_SK_DM320004_INTERNAL_ETHERNET\FileSystem.o
 .pdr           0x00000000        0x0 Objects - TCPIP Demo App - C32 - PIC32_ENET_SK_DM320004_INTERNAL_ETHERNET\FileSystem.o
 .text          0x00000000        0x0 Objects - TCPIP Demo App - C32 - PIC32_ENET_SK_DM320004_INTERNAL_ETHERNET\FTP.o
 .data          0x00000000        0x0 Objects - TCPIP Demo App - C32 - PIC32_ENET_SK_DM320004_INTERNAL_ETHERNET\FTP.o
 .bss           0x00000000        0x0 Objects - TCPIP Demo App - C32 - PIC32_ENET_SK_DM320004_INTERNAL_ETHERNET\FTP.o
 .reginfo       0x00000000       0x18 Objects - TCPIP Demo App - C32 - PIC32_ENET_SK_DM320004_INTERNAL_ETHERNET\FTP.o
 .pdr           0x00000000        0x0 Objects - TCPIP Demo App - C32 - PIC32_ENET_SK_DM320004_INTERNAL_ETHERNET\FTP.o
 .data          0x00000000        0x0 Objects - TCPIP Demo App - C32 - PIC32_ENET_SK_DM320004_INTERNAL_ETHERNET\Hashes.o
 .bss           0x00000000        0x0 Objects - TCPIP Demo App - C32 - PIC32_ENET_SK_DM320004_INTERNAL_ETHERNET\Hashes.o
 .reginfo       0x00000000       0x18 Objects - TCPIP Demo App - C32 - PIC32_ENET_SK_DM320004_INTERNAL_ETHERNET\Hashes.o
 .pdr           0x00000000       0xa0 Objects - TCPIP Demo App - C32 - PIC32_ENET_SK_DM320004_INTERNAL_ETHERNET\Hashes.o
 .data          0x00000000        0x0 Objects - TCPIP Demo App - C32 - PIC32_ENET_SK_DM320004_INTERNAL_ETHERNET\Helpers.o
 .bss           0x00000000        0x0 Objects - TCPIP Demo App - C32 - PIC32_ENET_SK_DM320004_INTERNAL_ETHERNET\Helpers.o
 .reginfo       0x00000000       0x18 Objects - TCPIP Demo App - C32 - PIC32_ENET_SK_DM320004_INTERNAL_ETHERNET\Helpers.o
 .pdr           0x00000000      0x240 Objects - TCPIP Demo App - C32 - PIC32_ENET_SK_DM320004_INTERNAL_ETHERNET\Helpers.o
 .data          0x00000000        0x0 Objects - TCPIP Demo App - C32 - PIC32_ENET_SK_DM320004_INTERNAL_ETHERNET\HTTP2.o
 .bss           0x00000000        0x0 Objects - TCPIP Demo App - C32 - PIC32_ENET_SK_DM320004_INTERNAL_ETHERNET\HTTP2.o
 .reginfo       0x00000000       0x18 Objects - TCPIP Demo App - C32 - PIC32_ENET_SK_DM320004_INTERNAL_ETHERNET\HTTP2.o
 .pdr           0x00000000      0x220 Objects - TCPIP Demo App - C32 - PIC32_ENET_SK_DM320004_INTERNAL_ETHERNET\HTTP2.o
 .text          0x00000000        0x0 Objects - TCPIP Demo App - C32 - PIC32_ENET_SK_DM320004_INTERNAL_ETHERNET\HTTP.o
 .data          0x00000000        0x0 Objects - TCPIP Demo App - C32 - PIC32_ENET_SK_DM320004_INTERNAL_ETHERNET\HTTP.o
 .bss           0x00000000        0x0 Objects - TCPIP Demo App - C32 - PIC32_ENET_SK_DM320004_INTERNAL_ETHERNET\HTTP.o
 .reginfo       0x00000000       0x18 Objects - TCPIP Demo App - C32 - PIC32_ENET_SK_DM320004_INTERNAL_ETHERNET\HTTP.o
 .pdr           0x00000000        0x0 Objects - TCPIP Demo App - C32 - PIC32_ENET_SK_DM320004_INTERNAL_ETHERNET\HTTP.o
 .data          0x00000000        0x0 Objects - TCPIP Demo App - C32 - PIC32_ENET_SK_DM320004_INTERNAL_ETHERNET\ICMP.o
 .reginfo       0x00000000       0x18 Objects - TCPIP Demo App - C32 - PIC32_ENET_SK_DM320004_INTERNAL_ETHERNET\ICMP.o
 .pdr           0x00000000       0xc0 Objects - TCPIP Demo App - C32 - PIC32_ENET_SK_DM320004_INTERNAL_ETHERNET\ICMP.o
 .data          0x00000000        0x0 Objects - TCPIP Demo App - C32 - PIC32_ENET_SK_DM320004_INTERNAL_ETHERNET\IP.o
 .bss           0x00000000        0x0 Objects - TCPIP Demo App - C32 - PIC32_ENET_SK_DM320004_INTERNAL_ETHERNET\IP.o
 .reginfo       0x00000000       0x18 Objects - TCPIP Demo App - C32 - PIC32_ENET_SK_DM320004_INTERNAL_ETHERNET\IP.o
 .pdr           0x00000000       0x80 Objects - TCPIP Demo App - C32 - PIC32_ENET_SK_DM320004_INTERNAL_ETHERNET\IP.o
 .text          0x00000000        0x0 Objects - TCPIP Demo App - C32 - PIC32_ENET_SK_DM320004_INTERNAL_ETHERNET\LCDBlocking.o
 .data          0x00000000        0x0 Objects - TCPIP Demo App - C32 - PIC32_ENET_SK_DM320004_INTERNAL_ETHERNET\LCDBlocking.o
 .bss           0x00000000        0x0 Objects - TCPIP Demo App - C32 - PIC32_ENET_SK_DM320004_INTERNAL_ETHERNET\LCDBlocking.o
 .reginfo       0x00000000       0x18 Objects - TCPIP Demo App - C32 - PIC32_ENET_SK_DM320004_INTERNAL_ETHERNET\LCDBlocking.o
 .pdr           0x00000000        0x0 Objects - TCPIP Demo App - C32 - PIC32_ENET_SK_DM320004_INTERNAL_ETHERNET\LCDBlocking.o
 .data          0x00000000        0x0 Objects - TCPIP Demo App - C32 - PIC32_ENET_SK_DM320004_INTERNAL_ETHERNET\MPFS2.o
 .reginfo       0x00000000       0x18 Objects - TCPIP Demo App - C32 - PIC32_ENET_SK_DM320004_INTERNAL_ETHERNET\MPFS2.o
 .pdr           0x00000000      0x280 Objects - TCPIP Demo App - C32 - PIC32_ENET_SK_DM320004_INTERNAL_ETHERNET\MPFS2.o
 .text          0x00000000        0x0 Objects - TCPIP Demo App - C32 - PIC32_ENET_SK_DM320004_INTERNAL_ETHERNET\MPFS.o
 .data          0x00000000        0x0 Objects - TCPIP Demo App - C32 - PIC32_ENET_SK_DM320004_INTERNAL_ETHERNET\MPFS.o
 .bss           0x00000000        0x0 Objects - TCPIP Demo App - C32 - PIC32_ENET_SK_DM320004_INTERNAL_ETHERNET\MPFS.o
 .reginfo       0x00000000       0x18 Objects - TCPIP Demo App - C32 - PIC32_ENET_SK_DM320004_INTERNAL_ETHERNET\MPFS.o
 .pdr           0x00000000        0x0 Objects - TCPIP Demo App - C32 - PIC32_ENET_SK_DM320004_INTERNAL_ETHERNET\MPFS.o
 .data          0x00000000        0x0 Objects - TCPIP Demo App - C32 - PIC32_ENET_SK_DM320004_INTERNAL_ETHERNET\NBNS.o
 .bss           0x00000000        0x0 Objects - TCPIP Demo App - C32 - PIC32_ENET_SK_DM320004_INTERNAL_ETHERNET\NBNS.o
 .reginfo       0x00000000       0x18 Objects - TCPIP Demo App - C32 - PIC32_ENET_SK_DM320004_INTERNAL_ETHERNET\NBNS.o
 .pdr           0x00000000       0x60 Objects - TCPIP Demo App - C32 - PIC32_ENET_SK_DM320004_INTERNAL_ETHERNET\NBNS.o
 .text          0x00000000        0x0 Objects - TCPIP Demo App - C32 - PIC32_ENET_SK_DM320004_INTERNAL_ETHERNET\Random.o
 .data          0x00000000        0x0 Objects - TCPIP Demo App - C32 - PIC32_ENET_SK_DM320004_INTERNAL_ETHERNET\Random.o
 .bss           0x00000000        0x0 Objects - TCPIP Demo App - C32 - PIC32_ENET_SK_DM320004_INTERNAL_ETHERNET\Random.o
 .reginfo       0x00000000       0x18 Objects - TCPIP Demo App - C32 - PIC32_ENET_SK_DM320004_INTERNAL_ETHERNET\Random.o
 .pdr           0x00000000        0x0 Objects - TCPIP Demo App - C32 - PIC32_ENET_SK_DM320004_INTERNAL_ETHERNET\Random.o
 .data          0x00000000        0x0 Objects - TCPIP Demo App - C32 - PIC32_ENET_SK_DM320004_INTERNAL_ETHERNET\Reboot.o
 .bss           0x00000000        0x0 Objects - TCPIP Demo App - C32 - PIC32_ENET_SK_DM320004_INTERNAL_ETHERNET\Reboot.o
 .reginfo       0x00000000       0x18 Objects - TCPIP Demo App - C32 - PIC32_ENET_SK_DM320004_INTERNAL_ETHERNET\Reboot.o
 .pdr           0x00000000       0x20 Objects - TCPIP Demo App - C32 - PIC32_ENET_SK_DM320004_INTERNAL_ETHERNET\Reboot.o
 .text          0x00000000        0x0 Objects - TCPIP Demo App - C32 - PIC32_ENET_SK_DM320004_INTERNAL_ETHERNET\RSA.o
 .data          0x00000000        0x0 Objects - TCPIP Demo App - C32 - PIC32_ENET_SK_DM320004_INTERNAL_ETHERNET\RSA.o
 .bss           0x00000000        0x0 Objects - TCPIP Demo App - C32 - PIC32_ENET_SK_DM320004_INTERNAL_ETHERNET\RSA.o
 .reginfo       0x00000000       0x18 Objects - TCPIP Demo App - C32 - PIC32_ENET_SK_DM320004_INTERNAL_ETHERNET\RSA.o
 .pdr           0x00000000        0x0 Objects - TCPIP Demo App - C32 - PIC32_ENET_SK_DM320004_INTERNAL_ETHERNET\RSA.o
 .data          0x00000000        0x0 Objects - TCPIP Demo App - C32 - PIC32_ENET_SK_DM320004_INTERNAL_ETHERNET\SMTP.o
 .bss           0x00000000        0x0 Objects - TCPIP Demo App - C32 - PIC32_ENET_SK_DM320004_INTERNAL_ETHERNET\SMTP.o
 .reginfo       0x00000000       0x18 Objects - TCPIP Demo App - C32 - PIC32_ENET_SK_DM320004_INTERNAL_ETHERNET\SMTP.o
 .pdr           0x00000000      0x1a0 Objects - TCPIP Demo App - C32 - PIC32_ENET_SK_DM320004_INTERNAL_ETHERNET\SMTP.o
 .text          0x00000000        0x0 Objects - TCPIP Demo App - C32 - PIC32_ENET_SK_DM320004_INTERNAL_ETHERNET\SNMP.o
 .data          0x00000000        0x0 Objects - TCPIP Demo App - C32 - PIC32_ENET_SK_DM320004_INTERNAL_ETHERNET\SNMP.o
 .bss           0x00000000        0x0 Objects - TCPIP Demo App - C32 - PIC32_ENET_SK_DM320004_INTERNAL_ETHERNET\SNMP.o
 .reginfo       0x00000000       0x18 Objects - TCPIP Demo App - C32 - PIC32_ENET_SK_DM320004_INTERNAL_ETHERNET\SNMP.o
 .pdr           0x00000000        0x0 Objects - TCPIP Demo App - C32 - PIC32_ENET_SK_DM320004_INTERNAL_ETHERNET\SNMP.o
 .text          0x00000000        0x0 Objects - TCPIP Demo App - C32 - PIC32_ENET_SK_DM320004_INTERNAL_ETHERNET\SNMPv3.o
 .data          0x00000000        0x0 Objects - TCPIP Demo App - C32 - PIC32_ENET_SK_DM320004_INTERNAL_ETHERNET\SNMPv3.o
 .bss           0x00000000        0x0 Objects - TCPIP Demo App - C32 - PIC32_ENET_SK_DM320004_INTERNAL_ETHERNET\SNMPv3.o
 .reginfo       0x00000000       0x18 Objects - TCPIP Demo App - C32 - PIC32_ENET_SK_DM320004_INTERNAL_ETHERNET\SNMPv3.o
 .pdr           0x00000000        0x0 Objects - TCPIP Demo App - C32 - PIC32_ENET_SK_DM320004_INTERNAL_ETHERNET\SNMPv3.o
 .text          0x00000000        0x0 Objects - TCPIP Demo App - C32 - PIC32_ENET_SK_DM320004_INTERNAL_ETHERNET\SNMPv3USM.o
 .data          0x00000000        0x0 Objects - TCPIP Demo App - C32 - PIC32_ENET_SK_DM320004_INTERNAL_ETHERNET\SNMPv3USM.o
 .bss           0x00000000        0x0 Objects - TCPIP Demo App - C32 - PIC32_ENET_SK_DM320004_INTERNAL_ETHERNET\SNMPv3USM.o
 .reginfo       0x00000000       0x18 Objects - TCPIP Demo App - C32 - PIC32_ENET_SK_DM320004_INTERNAL_ETHERNET\SNMPv3USM.o
 .pdr           0x00000000        0x0 Objects - TCPIP Demo App - C32 - PIC32_ENET_SK_DM320004_INTERNAL_ETHERNET\SNMPv3USM.o
 .data          0x00000000        0x0 Objects - TCPIP Demo App - C32 - PIC32_ENET_SK_DM320004_INTERNAL_ETHERNET\SNTP.o
 .reginfo       0x00000000       0x18 Objects - TCPIP Demo App - C32 - PIC32_ENET_SK_DM320004_INTERNAL_ETHERNET\SNTP.o
 .pdr           0x00000000       0x40 Objects - TCPIP Demo App - C32 - PIC32_ENET_SK_DM320004_INTERNAL_ETHERNET\SNTP.o
 .text          0x00000000        0x0 Objects - TCPIP Demo App - C32 - PIC32_ENET_SK_DM320004_INTERNAL_ETHERNET\SPIEEPROM.o
 .data          0x00000000        0x0 Objects - TCPIP Demo App - C32 - PIC32_ENET_SK_DM320004_INTERNAL_ETHERNET\SPIEEPROM.o
 .bss           0x00000000        0x0 Objects - TCPIP Demo App - C32 - PIC32_ENET_SK_DM320004_INTERNAL_ETHERNET\SPIEEPROM.o
 .reginfo       0x00000000       0x18 Objects - TCPIP Demo App - C32 - PIC32_ENET_SK_DM320004_INTERNAL_ETHERNET\SPIEEPROM.o
 .pdr           0x00000000        0x0 Objects - TCPIP Demo App - C32 - PIC32_ENET_SK_DM320004_INTERNAL_ETHERNET\SPIEEPROM.o
 .text          0x00000000        0x0 Objects - TCPIP Demo App - C32 - PIC32_ENET_SK_DM320004_INTERNAL_ETHERNET\SPIFlash.o
 .data          0x00000000        0x0 Objects - TCPIP Demo App - C32 - PIC32_ENET_SK_DM320004_INTERNAL_ETHERNET\SPIFlash.o
 .bss           0x00000000        0x0 Objects - TCPIP Demo App - C32 - PIC32_ENET_SK_DM320004_INTERNAL_ETHERNET\SPIFlash.o
 .reginfo       0x00000000       0x18 Objects - TCPIP Demo App - C32 - PIC32_ENET_SK_DM320004_INTERNAL_ETHERNET\SPIFlash.o
 .pdr           0x00000000        0x0 Objects - TCPIP Demo App - C32 - PIC32_ENET_SK_DM320004_INTERNAL_ETHERNET\SPIFlash.o
 .text          0x00000000        0x0 Objects - TCPIP Demo App - C32 - PIC32_ENET_SK_DM320004_INTERNAL_ETHERNET\SPIRAM.o
 .data          0x00000000        0x0 Objects - TCPIP Demo App - C32 - PIC32_ENET_SK_DM320004_INTERNAL_ETHERNET\SPIRAM.o
 .bss           0x00000000        0x0 Objects - TCPIP Demo App - C32 - PIC32_ENET_SK_DM320004_INTERNAL_ETHERNET\SPIRAM.o
 .reginfo       0x00000000       0x18 Objects - TCPIP Demo App - C32 - PIC32_ENET_SK_DM320004_INTERNAL_ETHERNET\SPIRAM.o
 .pdr           0x00000000        0x0 Objects - TCPIP Demo App - C32 - PIC32_ENET_SK_DM320004_INTERNAL_ETHERNET\SPIRAM.o
 .text          0x00000000        0x0 Objects - TCPIP Demo App - C32 - PIC32_ENET_SK_DM320004_INTERNAL_ETHERNET\SSL.o
 .data          0x00000000        0x0 Objects - TCPIP Demo App - C32 - PIC32_ENET_SK_DM320004_INTERNAL_ETHERNET\SSL.o
 .bss           0x00000000        0x0 Objects - TCPIP Demo App - C32 - PIC32_ENET_SK_DM320004_INTERNAL_ETHERNET\SSL.o
 .reginfo       0x00000000       0x18 Objects - TCPIP Demo App - C32 - PIC32_ENET_SK_DM320004_INTERNAL_ETHERNET\SSL.o
 .pdr           0x00000000        0x0 Objects - TCPIP Demo App - C32 - PIC32_ENET_SK_DM320004_INTERNAL_ETHERNET\SSL.o
 .data          0x00000000        0x0 Objects - TCPIP Demo App - C32 - PIC32_ENET_SK_DM320004_INTERNAL_ETHERNET\StackTsk.o
 .bss           0x00000000        0x0 Objects - TCPIP Demo App - C32 - PIC32_ENET_SK_DM320004_INTERNAL_ETHERNET\StackTsk.o
 .reginfo       0x00000000       0x18 Objects - TCPIP Demo App - C32 - PIC32_ENET_SK_DM320004_INTERNAL_ETHERNET\StackTsk.o
 .pdr           0x00000000       0x60 Objects - TCPIP Demo App - C32 - PIC32_ENET_SK_DM320004_INTERNAL_ETHERNET\StackTsk.o
 .data          0x00000000        0x0 Objects - TCPIP Demo App - C32 - PIC32_ENET_SK_DM320004_INTERNAL_ETHERNET\TCP.o
 .reginfo       0x00000000       0x18 Objects - TCPIP Demo App - C32 - PIC32_ENET_SK_DM320004_INTERNAL_ETHERNET\TCP.o
 .pdr           0x00000000      0x420 Objects - TCPIP Demo App - C32 - PIC32_ENET_SK_DM320004_INTERNAL_ETHERNET\TCP.o
 .data          0x00000000        0x0 Objects - TCPIP Demo App - C32 - PIC32_ENET_SK_DM320004_INTERNAL_ETHERNET\TCPPerformanceTest.o
 .reginfo       0x00000000       0x18 Objects - TCPIP Demo App - C32 - PIC32_ENET_SK_DM320004_INTERNAL_ETHERNET\TCPPerformanceTest.o
 .pdr           0x00000000       0x60 Objects - TCPIP Demo App - C32 - PIC32_ENET_SK_DM320004_INTERNAL_ETHERNET\TCPPerformanceTest.o
 .data          0x00000000        0x0 Objects - TCPIP Demo App - C32 - PIC32_ENET_SK_DM320004_INTERNAL_ETHERNET\Telnet.o
 .bss           0x00000000        0x0 Objects - TCPIP Demo App - C32 - PIC32_ENET_SK_DM320004_INTERNAL_ETHERNET\Telnet.o
 .reginfo       0x00000000       0x18 Objects - TCPIP Demo App - C32 - PIC32_ENET_SK_DM320004_INTERNAL_ETHERNET\Telnet.o
 .pdr           0x00000000       0x20 Objects - TCPIP Demo App - C32 - PIC32_ENET_SK_DM320004_INTERNAL_ETHERNET\Telnet.o
 .text          0x00000000        0x0 Objects - TCPIP Demo App - C32 - PIC32_ENET_SK_DM320004_INTERNAL_ETHERNET\TFTPc.o
 .data          0x00000000        0x0 Objects - TCPIP Demo App - C32 - PIC32_ENET_SK_DM320004_INTERNAL_ETHERNET\TFTPc.o
 .bss           0x00000000        0x0 Objects - TCPIP Demo App - C32 - PIC32_ENET_SK_DM320004_INTERNAL_ETHERNET\TFTPc.o
 .reginfo       0x00000000       0x18 Objects - TCPIP Demo App - C32 - PIC32_ENET_SK_DM320004_INTERNAL_ETHERNET\TFTPc.o
 .pdr           0x00000000        0x0 Objects - TCPIP Demo App - C32 - PIC32_ENET_SK_DM320004_INTERNAL_ETHERNET\TFTPc.o
 .data          0x00000000        0x0 Objects - TCPIP Demo App - C32 - PIC32_ENET_SK_DM320004_INTERNAL_ETHERNET\Tick.o
 .bss           0x00000000        0x0 Objects - TCPIP Demo App - C32 - PIC32_ENET_SK_DM320004_INTERNAL_ETHERNET\Tick.o
 .reginfo       0x00000000       0x18 Objects - TCPIP Demo App - C32 - PIC32_ENET_SK_DM320004_INTERNAL_ETHERNET\Tick.o
 .pdr           0x00000000      0x100 Objects - TCPIP Demo App - C32 - PIC32_ENET_SK_DM320004_INTERNAL_ETHERNET\Tick.o
 .text          0x00000000        0x0 Objects - TCPIP Demo App - C32 - PIC32_ENET_SK_DM320004_INTERNAL_ETHERNET\UART2TCPBridge.o
 .data          0x00000000        0x0 Objects - TCPIP Demo App - C32 - PIC32_ENET_SK_DM320004_INTERNAL_ETHERNET\UART2TCPBridge.o
 .bss           0x00000000        0x0 Objects - TCPIP Demo App - C32 - PIC32_ENET_SK_DM320004_INTERNAL_ETHERNET\UART2TCPBridge.o
 .reginfo       0x00000000       0x18 Objects - TCPIP Demo App - C32 - PIC32_ENET_SK_DM320004_INTERNAL_ETHERNET\UART2TCPBridge.o
 .pdr           0x00000000        0x0 Objects - TCPIP Demo App - C32 - PIC32_ENET_SK_DM320004_INTERNAL_ETHERNET\UART2TCPBridge.o
 .text          0x00000000        0x0 Objects - TCPIP Demo App - C32 - PIC32_ENET_SK_DM320004_INTERNAL_ETHERNET\UART.o
 .data          0x00000000        0x0 Objects - TCPIP Demo App - C32 - PIC32_ENET_SK_DM320004_INTERNAL_ETHERNET\UART.o
 .bss           0x00000000        0x0 Objects - TCPIP Demo App - C32 - PIC32_ENET_SK_DM320004_INTERNAL_ETHERNET\UART.o
 .reginfo       0x00000000       0x18 Objects - TCPIP Demo App - C32 - PIC32_ENET_SK_DM320004_INTERNAL_ETHERNET\UART.o
 .pdr           0x00000000        0x0 Objects - TCPIP Demo App - C32 - PIC32_ENET_SK_DM320004_INTERNAL_ETHERNET\UART.o
 .data          0x00000000        0x0 Objects - TCPIP Demo App - C32 - PIC32_ENET_SK_DM320004_INTERNAL_ETHERNET\UDP.o
 .bss           0x00000000        0x0 Objects - TCPIP Demo App - C32 - PIC32_ENET_SK_DM320004_INTERNAL_ETHERNET\UDP.o
 .reginfo       0x00000000       0x18 Objects - TCPIP Demo App - C32 - PIC32_ENET_SK_DM320004_INTERNAL_ETHERNET\UDP.o
 .pdr           0x00000000      0x220 Objects - TCPIP Demo App - C32 - PIC32_ENET_SK_DM320004_INTERNAL_ETHERNET\UDP.o
 .text          0x00000000        0x0 Objects - TCPIP Demo App - C32 - PIC32_ENET_SK_DM320004_INTERNAL_ETHERNET\UDPPerformanceTest.o
 .data          0x00000000        0x0 Objects - TCPIP Demo App - C32 - PIC32_ENET_SK_DM320004_INTERNAL_ETHERNET\UDPPerformanceTest.o
 .bss           0x00000000        0x0 Objects - TCPIP Demo App - C32 - PIC32_ENET_SK_DM320004_INTERNAL_ETHERNET\UDPPerformanceTest.o
 .reginfo       0x00000000       0x18 Objects - TCPIP Demo App - C32 - PIC32_ENET_SK_DM320004_INTERNAL_ETHERNET\UDPPerformanceTest.o
 .pdr           0x00000000        0x0 Objects - TCPIP Demo App - C32 - PIC32_ENET_SK_DM320004_INTERNAL_ETHERNET\UDPPerformanceTest.o
 .text          0x00000000        0x0 Objects - TCPIP Demo App - C32 - PIC32_ENET_SK_DM320004_INTERNAL_ETHERNET\ZeroconfHelper.o
 .data          0x00000000        0x0 Objects - TCPIP Demo App - C32 - PIC32_ENET_SK_DM320004_INTERNAL_ETHERNET\ZeroconfHelper.o
 .bss           0x00000000        0x0 Objects - TCPIP Demo App - C32 - PIC32_ENET_SK_DM320004_INTERNAL_ETHERNET\ZeroconfHelper.o
 .reginfo       0x00000000       0x18 Objects - TCPIP Demo App - C32 - PIC32_ENET_SK_DM320004_INTERNAL_ETHERNET\ZeroconfHelper.o
 .pdr           0x00000000        0x0 Objects - TCPIP Demo App - C32 - PIC32_ENET_SK_DM320004_INTERNAL_ETHERNET\ZeroconfHelper.o
 .text          0x00000000        0x0 Objects - TCPIP Demo App - C32 - PIC32_ENET_SK_DM320004_INTERNAL_ETHERNET\ZeroconfLinkLocal.o
 .data          0x00000000        0x0 Objects - TCPIP Demo App - C32 - PIC32_ENET_SK_DM320004_INTERNAL_ETHERNET\ZeroconfLinkLocal.o
 .bss           0x00000000        0x0 Objects - TCPIP Demo App - C32 - PIC32_ENET_SK_DM320004_INTERNAL_ETHERNET\ZeroconfLinkLocal.o
 .reginfo       0x00000000       0x18 Objects - TCPIP Demo App - C32 - PIC32_ENET_SK_DM320004_INTERNAL_ETHERNET\ZeroconfLinkLocal.o
 .pdr           0x00000000        0x0 Objects - TCPIP Demo App - C32 - PIC32_ENET_SK_DM320004_INTERNAL_ETHERNET\ZeroconfLinkLocal.o
 .text          0x00000000        0x0 Objects - TCPIP Demo App - C32 - PIC32_ENET_SK_DM320004_INTERNAL_ETHERNET\ZeroconfMulticastDNS.o
 .data          0x00000000        0x0 Objects - TCPIP Demo App - C32 - PIC32_ENET_SK_DM320004_INTERNAL_ETHERNET\ZeroconfMulticastDNS.o
 .bss           0x00000000        0x0 Objects - TCPIP Demo App - C32 - PIC32_ENET_SK_DM320004_INTERNAL_ETHERNET\ZeroconfMulticastDNS.o
 .reginfo       0x00000000       0x18 Objects - TCPIP Demo App - C32 - PIC32_ENET_SK_DM320004_INTERNAL_ETHERNET\ZeroconfMulticastDNS.o
 .pdr           0x00000000        0x0 Objects - TCPIP Demo App - C32 - PIC32_ENET_SK_DM320004_INTERNAL_ETHERNET\ZeroconfMulticastDNS.o
 .data          0x00000000        0x0 Objects - TCPIP Demo App - C32 - PIC32_ENET_SK_DM320004_INTERNAL_ETHERNET\CustomHTTPApp.o
 .reginfo       0x00000000       0x18 Objects - TCPIP Demo App - C32 - PIC32_ENET_SK_DM320004_INTERNAL_ETHERNET\CustomHTTPApp.o
 .pdr           0x00000000      0x520 Objects - TCPIP Demo App - C32 - PIC32_ENET_SK_DM320004_INTERNAL_ETHERNET\CustomHTTPApp.o
 .text          0x00000000        0x0 Objects - TCPIP Demo App - C32 - PIC32_ENET_SK_DM320004_INTERNAL_ETHERNET\CustomSNMPApp.o
 .data          0x00000000        0x0 Objects - TCPIP Demo App - C32 - PIC32_ENET_SK_DM320004_INTERNAL_ETHERNET\CustomSNMPApp.o
 .bss           0x00000000        0x0 Objects - TCPIP Demo App - C32 - PIC32_ENET_SK_DM320004_INTERNAL_ETHERNET\CustomSNMPApp.o
 .reginfo       0x00000000       0x18 Objects - TCPIP Demo App - C32 - PIC32_ENET_SK_DM320004_INTERNAL_ETHERNET\CustomSNMPApp.o
 .pdr           0x00000000        0x0 Objects - TCPIP Demo App - C32 - PIC32_ENET_SK_DM320004_INTERNAL_ETHERNET\CustomSNMPApp.o
 .text          0x00000000        0x0 Objects - TCPIP Demo App - C32 - PIC32_ENET_SK_DM320004_INTERNAL_ETHERNET\CustomSSLCert.o
 .data          0x00000000        0x0 Objects - TCPIP Demo App - C32 - PIC32_ENET_SK_DM320004_INTERNAL_ETHERNET\CustomSSLCert.o
 .bss           0x00000000        0x0 Objects - TCPIP Demo App - C32 - PIC32_ENET_SK_DM320004_INTERNAL_ETHERNET\CustomSSLCert.o
 .reginfo       0x00000000       0x18 Objects - TCPIP Demo App - C32 - PIC32_ENET_SK_DM320004_INTERNAL_ETHERNET\CustomSSLCert.o
 .pdr           0x00000000        0x0 Objects - TCPIP Demo App - C32 - PIC32_ENET_SK_DM320004_INTERNAL_ETHERNET\CustomSSLCert.o
 .data          0x00000000        0x0 Objects - TCPIP Demo App - C32 - PIC32_ENET_SK_DM320004_INTERNAL_ETHERNET\MainDemo.o
 .bss           0x00000000        0x0 Objects - TCPIP Demo App - C32 - PIC32_ENET_SK_DM320004_INTERNAL_ETHERNET\MainDemo.o
 .reginfo       0x00000000       0x18 Objects - TCPIP Demo App - C32 - PIC32_ENET_SK_DM320004_INTERNAL_ETHERNET\MainDemo.o
 .pdr           0x00000000       0xc0 Objects - TCPIP Demo App - C32 - PIC32_ENET_SK_DM320004_INTERNAL_ETHERNET\MainDemo.o
 .reginfo       0x00000000       0x18 Objects - TCPIP Demo App - C32 - PIC32_ENET_SK_DM320004_INTERNAL_ETHERNET\BerkeleyTCPClientDemo.o
 .pdr           0x00000000       0x20 Objects - TCPIP Demo App - C32 - PIC32_ENET_SK_DM320004_INTERNAL_ETHERNET\BerkeleyTCPClientDemo.o
 .data          0x00000000        0x0 Objects - TCPIP Demo App - C32 - PIC32_ENET_SK_DM320004_INTERNAL_ETHERNET\BerkeleyTCPServerDemo.o
 .bss           0x00000000        0x0 Objects - TCPIP Demo App - C32 - PIC32_ENET_SK_DM320004_INTERNAL_ETHERNET\BerkeleyTCPServerDemo.o
 .reginfo       0x00000000       0x18 Objects - TCPIP Demo App - C32 - PIC32_ENET_SK_DM320004_INTERNAL_ETHERNET\BerkeleyTCPServerDemo.o
 .pdr           0x00000000       0x20 Objects - TCPIP Demo App - C32 - PIC32_ENET_SK_DM320004_INTERNAL_ETHERNET\BerkeleyTCPServerDemo.o
 .data          0x00000000        0x0 Objects - TCPIP Demo App - C32 - PIC32_ENET_SK_DM320004_INTERNAL_ETHERNET\BerkeleyUDPClientDemo.o
 .reginfo       0x00000000       0x18 Objects - TCPIP Demo App - C32 - PIC32_ENET_SK_DM320004_INTERNAL_ETHERNET\BerkeleyUDPClientDemo.o
 .pdr           0x00000000       0x40 Objects - TCPIP Demo App - C32 - PIC32_ENET_SK_DM320004_INTERNAL_ETHERNET\BerkeleyUDPClientDemo.o
 .bss           0x00000000        0x0 Objects - TCPIP Demo App - C32 - PIC32_ENET_SK_DM320004_INTERNAL_ETHERNET\GenericTCPClient.o
 .reginfo       0x00000000       0x18 Objects - TCPIP Demo App - C32 - PIC32_ENET_SK_DM320004_INTERNAL_ETHERNET\GenericTCPClient.o
 .pdr           0x00000000       0x20 Objects - TCPIP Demo App - C32 - PIC32_ENET_SK_DM320004_INTERNAL_ETHERNET\GenericTCPClient.o
 .data          0x00000000        0x0 Objects - TCPIP Demo App - C32 - PIC32_ENET_SK_DM320004_INTERNAL_ETHERNET\GenericTCPServer.o
 .bss           0x00000000        0x0 Objects - TCPIP Demo App - C32 - PIC32_ENET_SK_DM320004_INTERNAL_ETHERNET\GenericTCPServer.o
 .reginfo       0x00000000       0x18 Objects - TCPIP Demo App - C32 - PIC32_ENET_SK_DM320004_INTERNAL_ETHERNET\GenericTCPServer.o
 .pdr           0x00000000       0x20 Objects - TCPIP Demo App - C32 - PIC32_ENET_SK_DM320004_INTERNAL_ETHERNET\GenericTCPServer.o
 .text          0x00000000        0x0 Objects - TCPIP Demo App - C32 - PIC32_ENET_SK_DM320004_INTERNAL_ETHERNET\LegacyHTTPApp.o
 .data          0x00000000        0x0 Objects - TCPIP Demo App - C32 - PIC32_ENET_SK_DM320004_INTERNAL_ETHERNET\LegacyHTTPApp.o
 .bss           0x00000000        0x0 Objects - TCPIP Demo App - C32 - PIC32_ENET_SK_DM320004_INTERNAL_ETHERNET\LegacyHTTPApp.o
 .reginfo       0x00000000       0x18 Objects - TCPIP Demo App - C32 - PIC32_ENET_SK_DM320004_INTERNAL_ETHERNET\LegacyHTTPApp.o
 .pdr           0x00000000        0x0 Objects - TCPIP Demo App - C32 - PIC32_ENET_SK_DM320004_INTERNAL_ETHERNET\LegacyHTTPApp.o
 .data          0x00000000        0x0 Objects - TCPIP Demo App - C32 - PIC32_ENET_SK_DM320004_INTERNAL_ETHERNET\PingDemo.o
 .bss           0x00000000        0x0 Objects - TCPIP Demo App - C32 - PIC32_ENET_SK_DM320004_INTERNAL_ETHERNET\PingDemo.o
 .reginfo       0x00000000       0x18 Objects - TCPIP Demo App - C32 - PIC32_ENET_SK_DM320004_INTERNAL_ETHERNET\PingDemo.o
 .pdr           0x00000000       0x20 Objects - TCPIP Demo App - C32 - PIC32_ENET_SK_DM320004_INTERNAL_ETHERNET\PingDemo.o
 .bss           0x00000000        0x0 Objects - TCPIP Demo App - C32 - PIC32_ENET_SK_DM320004_INTERNAL_ETHERNET\SMTPDemo.o
 .reginfo       0x00000000       0x18 Objects - TCPIP Demo App - C32 - PIC32_ENET_SK_DM320004_INTERNAL_ETHERNET\SMTPDemo.o
 .pdr           0x00000000       0x20 Objects - TCPIP Demo App - C32 - PIC32_ENET_SK_DM320004_INTERNAL_ETHERNET\SMTPDemo.o
 .text          0x00000000        0x0 Objects - TCPIP Demo App - C32 - PIC32_ENET_SK_DM320004_INTERNAL_ETHERNET\UARTConfig.o
 .data          0x00000000        0x0 Objects - TCPIP Demo App - C32 - PIC32_ENET_SK_DM320004_INTERNAL_ETHERNET\UARTConfig.o
 .bss           0x00000000        0x0 Objects - TCPIP Demo App - C32 - PIC32_ENET_SK_DM320004_INTERNAL_ETHERNET\UARTConfig.o
 .reginfo       0x00000000       0x18 Objects - TCPIP Demo App - C32 - PIC32_ENET_SK_DM320004_INTERNAL_ETHERNET\UARTConfig.o
 .pdr           0x00000000        0x0 Objects - TCPIP Demo App - C32 - PIC32_ENET_SK_DM320004_INTERNAL_ETHERNET\UARTConfig.o
 .text          0x00000000        0x0 Objects - TCPIP Demo App - C32 - PIC32_ENET_SK_DM320004_INTERNAL_ETHERNET\MPFSImg2.o
 .data          0x00000000        0x0 Objects - TCPIP Demo App - C32 - PIC32_ENET_SK_DM320004_INTERNAL_ETHERNET\MPFSImg2.o
 .bss           0x00000000        0x0 Objects - TCPIP Demo App - C32 - PIC32_ENET_SK_DM320004_INTERNAL_ETHERNET\MPFSImg2.o
 .reginfo       0x00000000       0x18 Objects - TCPIP Demo App - C32 - PIC32_ENET_SK_DM320004_INTERNAL_ETHERNET\MPFSImg2.o
 .pdr           0x00000000        0x0 Objects - TCPIP Demo App - C32 - PIC32_ENET_SK_DM320004_INTERNAL_ETHERNET\MPFSImg2.o
 .text          0x00000000        0x0 Objects - TCPIP Demo App - C32 - PIC32_ENET_SK_DM320004_INTERNAL_ETHERNET\MPFSImg.o
 .data          0x00000000        0x0 Objects - TCPIP Demo App - C32 - PIC32_ENET_SK_DM320004_INTERNAL_ETHERNET\MPFSImg.o
 .bss           0x00000000        0x0 Objects - TCPIP Demo App - C32 - PIC32_ENET_SK_DM320004_INTERNAL_ETHERNET\MPFSImg.o
 .reginfo       0x00000000       0x18 Objects - TCPIP Demo App - C32 - PIC32_ENET_SK_DM320004_INTERNAL_ETHERNET\MPFSImg.o
 .pdr           0x00000000        0x0 Objects - TCPIP Demo App - C32 - PIC32_ENET_SK_DM320004_INTERNAL_ETHERNET\MPFSImg.o
 .text          0x00000000        0x0 Objects - TCPIP Demo App - C32 - PIC32_ENET_SK_DM320004_INTERNAL_ETHERNET\BigInt_helper_C32.o
 .data          0x00000000        0x0 Objects - TCPIP Demo App - C32 - PIC32_ENET_SK_DM320004_INTERNAL_ETHERNET\BigInt_helper_C32.o
 .bss           0x00000000        0x0 Objects - TCPIP Demo App - C32 - PIC32_ENET_SK_DM320004_INTERNAL_ETHERNET\BigInt_helper_C32.o
 .reginfo       0x00000000       0x18 Objects - TCPIP Demo App - C32 - PIC32_ENET_SK_DM320004_INTERNAL_ETHERNET\BigInt_helper_C32.o
 .pdr           0x00000000        0x0 Objects - TCPIP Demo App - C32 - PIC32_ENET_SK_DM320004_INTERNAL_ETHERNET\BigInt_helper_C32.o
 .text          0x00000000        0x0 C:/Program Files (x86)/Microchip/MPLAB C32 Suite/bin/../lib/gcc/pic32mx/3.4.4/size\libgcc.a(_udivdi3.o)
 .data          0x00000000        0x0 C:/Program Files (x86)/Microchip/MPLAB C32 Suite/bin/../lib/gcc/pic32mx/3.4.4/size\libgcc.a(_udivdi3.o)
 .bss           0x00000000        0x0 C:/Program Files (x86)/Microchip/MPLAB C32 Suite/bin/../lib/gcc/pic32mx/3.4.4/size\libgcc.a(_udivdi3.o)
 .reginfo       0x00000000       0x18 C:/Program Files (x86)/Microchip/MPLAB C32 Suite/bin/../lib/gcc/pic32mx/3.4.4/size\libgcc.a(_udivdi3.o)
 .pdr           0x00000000       0x20 C:/Program Files (x86)/Microchip/MPLAB C32 Suite/bin/../lib/gcc/pic32mx/3.4.4/size\libgcc.a(_udivdi3.o)
 .data          0x00000000        0x0 C:/Program Files (x86)/Microchip/MPLAB C32 Suite/bin/../lib/gcc/pic32mx/3.4.4/../../../../pic32mx/lib/size\libc.a(memcmp.o)
 .bss           0x00000000        0x0 C:/Program Files (x86)/Microchip/MPLAB C32 Suite/bin/../lib/gcc/pic32mx/3.4.4/../../../../pic32mx/lib/size\libc.a(memcmp.o)
 .reginfo       0x00000000       0x18 C:/Program Files (x86)/Microchip/MPLAB C32 Suite/bin/../lib/gcc/pic32mx/3.4.4/../../../../pic32mx/lib/size\libc.a(memcmp.o)
 .pdr           0x00000000       0x20 C:/Program Files (x86)/Microchip/MPLAB C32 Suite/bin/../lib/gcc/pic32mx/3.4.4/../../../../pic32mx/lib/size\libc.a(memcmp.o)
 .data          0x00000000        0x0 C:/Program Files (x86)/Microchip/MPLAB C32 Suite/bin/../lib/gcc/pic32mx/3.4.4/../../../../pic32mx/lib/size\libc.a(memcpy.o)
 .bss           0x00000000        0x0 C:/Program Files (x86)/Microchip/MPLAB C32 Suite/bin/../lib/gcc/pic32mx/3.4.4/../../../../pic32mx/lib/size\libc.a(memcpy.o)
 .reginfo       0x00000000       0x18 C:/Program Files (x86)/Microchip/MPLAB C32 Suite/bin/../lib/gcc/pic32mx/3.4.4/../../../../pic32mx/lib/size\libc.a(memcpy.o)
 .pdr           0x00000000       0x20 C:/Program Files (x86)/Microchip/MPLAB C32 Suite/bin/../lib/gcc/pic32mx/3.4.4/../../../../pic32mx/lib/size\libc.a(memcpy.o)
 .data          0x00000000        0x0 C:/Program Files (x86)/Microchip/MPLAB C32 Suite/bin/../lib/gcc/pic32mx/3.4.4/../../../../pic32mx/lib/size\libc.a(memset.o)
 .bss           0x00000000        0x0 C:/Program Files (x86)/Microchip/MPLAB C32 Suite/bin/../lib/gcc/pic32mx/3.4.4/../../../../pic32mx/lib/size\libc.a(memset.o)
 .reginfo       0x00000000       0x18 C:/Program Files (x86)/Microchip/MPLAB C32 Suite/bin/../lib/gcc/pic32mx/3.4.4/../../../../pic32mx/lib/size\libc.a(memset.o)
 .pdr           0x00000000       0x20 C:/Program Files (x86)/Microchip/MPLAB C32 Suite/bin/../lib/gcc/pic32mx/3.4.4/../../../../pic32mx/lib/size\libc.a(memset.o)
 .data          0x00000000        0x0 C:/Program Files (x86)/Microchip/MPLAB C32 Suite/bin/../lib/gcc/pic32mx/3.4.4/../../../../pic32mx/lib/size\libc.a(strcmp.o)
 .bss           0x00000000        0x0 C:/Program Files (x86)/Microchip/MPLAB C32 Suite/bin/../lib/gcc/pic32mx/3.4.4/../../../../pic32mx/lib/size\libc.a(strcmp.o)
 .reginfo       0x00000000       0x18 C:/Program Files (x86)/Microchip/MPLAB C32 Suite/bin/../lib/gcc/pic32mx/3.4.4/../../../../pic32mx/lib/size\libc.a(strcmp.o)
 .pdr           0x00000000       0x20 C:/Program Files (x86)/Microchip/MPLAB C32 Suite/bin/../lib/gcc/pic32mx/3.4.4/../../../../pic32mx/lib/size\libc.a(strcmp.o)
 .data          0x00000000        0x0 C:/Program Files (x86)/Microchip/MPLAB C32 Suite/bin/../lib/gcc/pic32mx/3.4.4/../../../../pic32mx/lib/size\libc.a(strcpy.o)
 .bss           0x00000000        0x0 C:/Program Files (x86)/Microchip/MPLAB C32 Suite/bin/../lib/gcc/pic32mx/3.4.4/../../../../pic32mx/lib/size\libc.a(strcpy.o)
 .reginfo       0x00000000       0x18 C:/Program Files (x86)/Microchip/MPLAB C32 Suite/bin/../lib/gcc/pic32mx/3.4.4/../../../../pic32mx/lib/size\libc.a(strcpy.o)
 .pdr           0x00000000       0x20 C:/Program Files (x86)/Microchip/MPLAB C32 Suite/bin/../lib/gcc/pic32mx/3.4.4/../../../../pic32mx/lib/size\libc.a(strcpy.o)
 .data          0x00000000        0x0 C:/Program Files (x86)/Microchip/MPLAB C32 Suite/bin/../lib/gcc/pic32mx/3.4.4/../../../../pic32mx/lib/size\libc.a(strlen.o)
 .bss           0x00000000        0x0 C:/Program Files (x86)/Microchip/MPLAB C32 Suite/bin/../lib/gcc/pic32mx/3.4.4/../../../../pic32mx/lib/size\libc.a(strlen.o)
 .reginfo       0x00000000       0x18 C:/Program Files (x86)/Microchip/MPLAB C32 Suite/bin/../lib/gcc/pic32mx/3.4.4/../../../../pic32mx/lib/size\libc.a(strlen.o)
 .pdr           0x00000000       0x20 C:/Program Files (x86)/Microchip/MPLAB C32 Suite/bin/../lib/gcc/pic32mx/3.4.4/../../../../pic32mx/lib/size\libc.a(strlen.o)
 .text          0x00000000        0x0 C:/Program Files (x86)/Microchip/MPLAB C32 Suite/bin/../lib/gcc/pic32mx/3.4.4/../../../../pic32mx/lib/size\libc.a(general-exception.o)
 .data          0x00000000        0x0 C:/Program Files (x86)/Microchip/MPLAB C32 Suite/bin/../lib/gcc/pic32mx/3.4.4/../../../../pic32mx/lib/size\libc.a(general-exception.o)
 .bss           0x00000000        0x0 C:/Program Files (x86)/Microchip/MPLAB C32 Suite/bin/../lib/gcc/pic32mx/3.4.4/../../../../pic32mx/lib/size\libc.a(general-exception.o)
 .reginfo       0x00000000       0x18 C:/Program Files (x86)/Microchip/MPLAB C32 Suite/bin/../lib/gcc/pic32mx/3.4.4/../../../../pic32mx/lib/size\libc.a(general-exception.o)
 .pdr           0x00000000       0x20 C:/Program Files (x86)/Microchip/MPLAB C32 Suite/bin/../lib/gcc/pic32mx/3.4.4/../../../../pic32mx/lib/size\libc.a(general-exception.o)
 .text          0x00000000        0x0 C:/Program Files (x86)/Microchip/MPLAB C32 Suite/bin/../lib/gcc/pic32mx/3.4.4/../../../../pic32mx/lib/size\libc.a(atoi.o)
 .data          0x00000000        0x0 C:/Program Files (x86)/Microchip/MPLAB C32 Suite/bin/../lib/gcc/pic32mx/3.4.4/../../../../pic32mx/lib/size\libc.a(atoi.o)
 .bss           0x00000000        0x0 C:/Program Files (x86)/Microchip/MPLAB C32 Suite/bin/../lib/gcc/pic32mx/3.4.4/../../../../pic32mx/lib/size\libc.a(atoi.o)
 .reginfo       0x00000000       0x18 C:/Program Files (x86)/Microchip/MPLAB C32 Suite/bin/../lib/gcc/pic32mx/3.4.4/../../../../pic32mx/lib/size\libc.a(atoi.o)
 .pdr           0x00000000       0x20 C:/Program Files (x86)/Microchip/MPLAB C32 Suite/bin/../lib/gcc/pic32mx/3.4.4/../../../../pic32mx/lib/size\libc.a(atoi.o)
 .text          0x00000000        0x0 C:/Program Files (x86)/Microchip/MPLAB C32 Suite/bin/../lib/gcc/pic32mx/3.4.4/../../../../pic32mx/lib/size\libc.a(atol.o)
 .data          0x00000000        0x0 C:/Program Files (x86)/Microchip/MPLAB C32 Suite/bin/../lib/gcc/pic32mx/3.4.4/../../../../pic32mx/lib/size\libc.a(atol.o)
 .bss           0x00000000        0x0 C:/Program Files (x86)/Microchip/MPLAB C32 Suite/bin/../lib/gcc/pic32mx/3.4.4/../../../../pic32mx/lib/size\libc.a(atol.o)
 .reginfo       0x00000000       0x18 C:/Program Files (x86)/Microchip/MPLAB C32 Suite/bin/../lib/gcc/pic32mx/3.4.4/../../../../pic32mx/lib/size\libc.a(atol.o)
 .pdr           0x00000000       0x20 C:/Program Files (x86)/Microchip/MPLAB C32 Suite/bin/../lib/gcc/pic32mx/3.4.4/../../../../pic32mx/lib/size\libc.a(atol.o)
 .text          0x00000000        0x0 C:/Program Files (x86)/Microchip/MPLAB C32 Suite/bin/../lib/gcc/pic32mx/3.4.4/../../../../pic32mx/lib/size\libc.a(calloc.o)
 .data          0x00000000        0x0 C:/Program Files (x86)/Microchip/MPLAB C32 Suite/bin/../lib/gcc/pic32mx/3.4.4/../../../../pic32mx/lib/size\libc.a(calloc.o)
 .bss           0x00000000        0x0 C:/Program Files (x86)/Microchip/MPLAB C32 Suite/bin/../lib/gcc/pic32mx/3.4.4/../../../../pic32mx/lib/size\libc.a(calloc.o)
 .reginfo       0x00000000       0x18 C:/Program Files (x86)/Microchip/MPLAB C32 Suite/bin/../lib/gcc/pic32mx/3.4.4/../../../../pic32mx/lib/size\libc.a(calloc.o)
 .pdr           0x00000000       0x20 C:/Program Files (x86)/Microchip/MPLAB C32 Suite/bin/../lib/gcc/pic32mx/3.4.4/../../../../pic32mx/lib/size\libc.a(calloc.o)
 .text          0x00000000        0x0 C:/Program Files (x86)/Microchip/MPLAB C32 Suite/bin/../lib/gcc/pic32mx/3.4.4/../../../../pic32mx/lib/size\libc.a(ctype.o)
 .data          0x00000000        0x0 C:/Program Files (x86)/Microchip/MPLAB C32 Suite/bin/../lib/gcc/pic32mx/3.4.4/../../../../pic32mx/lib/size\libc.a(ctype.o)
 .bss           0x00000000        0x0 C:/Program Files (x86)/Microchip/MPLAB C32 Suite/bin/../lib/gcc/pic32mx/3.4.4/../../../../pic32mx/lib/size\libc.a(ctype.o)
 .reginfo       0x00000000       0x18 C:/Program Files (x86)/Microchip/MPLAB C32 Suite/bin/../lib/gcc/pic32mx/3.4.4/../../../../pic32mx/lib/size\libc.a(ctype.o)
 .pdr           0x00000000        0x0 C:/Program Files (x86)/Microchip/MPLAB C32 Suite/bin/../lib/gcc/pic32mx/3.4.4/../../../../pic32mx/lib/size\libc.a(ctype.o)
 .text          0x00000000        0x0 C:/Program Files (x86)/Microchip/MPLAB C32 Suite/bin/../lib/gcc/pic32mx/3.4.4/../../../../pic32mx/lib/size\libc.a(malloc.o)
 .data          0x00000000        0x0 C:/Program Files (x86)/Microchip/MPLAB C32 Suite/bin/../lib/gcc/pic32mx/3.4.4/../../../../pic32mx/lib/size\libc.a(malloc.o)
 .bss           0x00000000        0x0 C:/Program Files (x86)/Microchip/MPLAB C32 Suite/bin/../lib/gcc/pic32mx/3.4.4/../../../../pic32mx/lib/size\libc.a(malloc.o)
 .reginfo       0x00000000       0x18 C:/Program Files (x86)/Microchip/MPLAB C32 Suite/bin/../lib/gcc/pic32mx/3.4.4/../../../../pic32mx/lib/size\libc.a(malloc.o)
 .pdr           0x00000000       0x60 C:/Program Files (x86)/Microchip/MPLAB C32 Suite/bin/../lib/gcc/pic32mx/3.4.4/../../../../pic32mx/lib/size\libc.a(malloc.o)
 .text.free     0x00000000       0x18 C:/Program Files (x86)/Microchip/MPLAB C32 Suite/bin/../lib/gcc/pic32mx/3.4.4/../../../../pic32mx/lib/size\libc.a(malloc.o)
 .text.realloc  0x00000000       0xcc C:/Program Files (x86)/Microchip/MPLAB C32 Suite/bin/../lib/gcc/pic32mx/3.4.4/../../../../pic32mx/lib/size\libc.a(malloc.o)
 .text          0x00000000        0x0 C:/Program Files (x86)/Microchip/MPLAB C32 Suite/bin/../lib/gcc/pic32mx/3.4.4/../../../../pic32mx/lib/size\libc.a(strchr.o)
 .data          0x00000000        0x0 C:/Program Files (x86)/Microchip/MPLAB C32 Suite/bin/../lib/gcc/pic32mx/3.4.4/../../../../pic32mx/lib/size\libc.a(strchr.o)
 .bss           0x00000000        0x0 C:/Program Files (x86)/Microchip/MPLAB C32 Suite/bin/../lib/gcc/pic32mx/3.4.4/../../../../pic32mx/lib/size\libc.a(strchr.o)
 .reginfo       0x00000000       0x18 C:/Program Files (x86)/Microchip/MPLAB C32 Suite/bin/../lib/gcc/pic32mx/3.4.4/../../../../pic32mx/lib/size\libc.a(strchr.o)
 .pdr           0x00000000       0x20 C:/Program Files (x86)/Microchip/MPLAB C32 Suite/bin/../lib/gcc/pic32mx/3.4.4/../../../../pic32mx/lib/size\libc.a(strchr.o)
 .text          0x00000000        0x0 C:/Program Files (x86)/Microchip/MPLAB C32 Suite/bin/../lib/gcc/pic32mx/3.4.4/../../../../pic32mx/lib/size\libc.a(strstr.o)
 .data          0x00000000        0x0 C:/Program Files (x86)/Microchip/MPLAB C32 Suite/bin/../lib/gcc/pic32mx/3.4.4/../../../../pic32mx/lib/size\libc.a(strstr.o)
 .bss           0x00000000        0x0 C:/Program Files (x86)/Microchip/MPLAB C32 Suite/bin/../lib/gcc/pic32mx/3.4.4/../../../../pic32mx/lib/size\libc.a(strstr.o)
 .reginfo       0x00000000       0x18 C:/Program Files (x86)/Microchip/MPLAB C32 Suite/bin/../lib/gcc/pic32mx/3.4.4/../../../../pic32mx/lib/size\libc.a(strstr.o)
 .pdr           0x00000000       0x20 C:/Program Files (x86)/Microchip/MPLAB C32 Suite/bin/../lib/gcc/pic32mx/3.4.4/../../../../pic32mx/lib/size\libc.a(strstr.o)
 .text          0x00000000        0x0 C:/Program Files (x86)/Microchip/MPLAB C32 Suite/bin/../lib/gcc/pic32mx/3.4.4/../../../../pic32mx/lib/size\libc.a(sbrk.o)
 .data          0x00000000        0x0 C:/Program Files (x86)/Microchip/MPLAB C32 Suite/bin/../lib/gcc/pic32mx/3.4.4/../../../../pic32mx/lib/size\libc.a(sbrk.o)
 .bss           0x00000000        0x0 C:/Program Files (x86)/Microchip/MPLAB C32 Suite/bin/../lib/gcc/pic32mx/3.4.4/../../../../pic32mx/lib/size\libc.a(sbrk.o)
 .reginfo       0x00000000       0x18 C:/Program Files (x86)/Microchip/MPLAB C32 Suite/bin/../lib/gcc/pic32mx/3.4.4/../../../../pic32mx/lib/size\libc.a(sbrk.o)
 .pdr           0x00000000       0xa0 C:/Program Files (x86)/Microchip/MPLAB C32 Suite/bin/../lib/gcc/pic32mx/3.4.4/../../../../pic32mx/lib/size\libc.a(sbrk.o)
 .text.getpagesize
                0x00000000        0x8 C:/Program Files (x86)/Microchip/MPLAB C32 Suite/bin/../lib/gcc/pic32mx/3.4.4/../../../../pic32mx/lib/size\libc.a(sbrk.o)
 .text          0x00000000        0x0 C:/Program Files (x86)/Microchip/MPLAB C32 Suite/bin/../lib/gcc/pic32mx/3.4.4/../../../../pic32mx/lib/size\libc.a(default-bootstrap-exception-handler.o)
 .data          0x00000000        0x0 C:/Program Files (x86)/Microchip/MPLAB C32 Suite/bin/../lib/gcc/pic32mx/3.4.4/../../../../pic32mx/lib/size\libc.a(default-bootstrap-exception-handler.o)
 .bss           0x00000000        0x0 C:/Program Files (x86)/Microchip/MPLAB C32 Suite/bin/../lib/gcc/pic32mx/3.4.4/../../../../pic32mx/lib/size\libc.a(default-bootstrap-exception-handler.o)
 .reginfo       0x00000000       0x18 C:/Program Files (x86)/Microchip/MPLAB C32 Suite/bin/../lib/gcc/pic32mx/3.4.4/../../../../pic32mx/lib/size\libc.a(default-bootstrap-exception-handler.o)
 .pdr           0x00000000       0x20 C:/Program Files (x86)/Microchip/MPLAB C32 Suite/bin/../lib/gcc/pic32mx/3.4.4/../../../../pic32mx/lib/size\libc.a(default-bootstrap-exception-handler.o)
 .text          0x00000000        0x0 C:/Program Files (x86)/Microchip/MPLAB C32 Suite/bin/../lib/gcc/pic32mx/3.4.4/../../../../pic32mx/lib/size\libc.a(default-on-reset.o)
 .data          0x00000000        0x0 C:/Program Files (x86)/Microchip/MPLAB C32 Suite/bin/../lib/gcc/pic32mx/3.4.4/../../../../pic32mx/lib/size\libc.a(default-on-reset.o)
 .bss           0x00000000        0x0 C:/Program Files (x86)/Microchip/MPLAB C32 Suite/bin/../lib/gcc/pic32mx/3.4.4/../../../../pic32mx/lib/size\libc.a(default-on-reset.o)
 .reginfo       0x00000000       0x18 C:/Program Files (x86)/Microchip/MPLAB C32 Suite/bin/../lib/gcc/pic32mx/3.4.4/../../../../pic32mx/lib/size\libc.a(default-on-reset.o)
 .pdr           0x00000000       0x20 C:/Program Files (x86)/Microchip/MPLAB C32 Suite/bin/../lib/gcc/pic32mx/3.4.4/../../../../pic32mx/lib/size\libc.a(default-on-reset.o)
 .text          0x00000000        0x0 C:/Program Files (x86)/Microchip/MPLAB C32 Suite/bin/../lib/gcc/pic32mx/3.4.4/../../../../pic32mx/lib/size\libc.a(default-on-bootstrap.o)
 .data          0x00000000        0x0 C:/Program Files (x86)/Microchip/MPLAB C32 Suite/bin/../lib/gcc/pic32mx/3.4.4/../../../../pic32mx/lib/size\libc.a(default-on-bootstrap.o)
 .bss           0x00000000        0x0 C:/Program Files (x86)/Microchip/MPLAB C32 Suite/bin/../lib/gcc/pic32mx/3.4.4/../../../../pic32mx/lib/size\libc.a(default-on-bootstrap.o)
 .reginfo       0x00000000       0x18 C:/Program Files (x86)/Microchip/MPLAB C32 Suite/bin/../lib/gcc/pic32mx/3.4.4/../../../../pic32mx/lib/size\libc.a(default-on-bootstrap.o)
 .pdr           0x00000000       0x20 C:/Program Files (x86)/Microchip/MPLAB C32 Suite/bin/../lib/gcc/pic32mx/3.4.4/../../../../pic32mx/lib/size\libc.a(default-on-bootstrap.o)
 .data          0x00000000        0x0 C:/Program Files (x86)/Microchip/MPLAB C32 Suite/bin/../lib/gcc/pic32mx/3.4.4/../../../../pic32mx/lib/size\libc.a(default-nmi-handler.o)
 .bss           0x00000000        0x0 C:/Program Files (x86)/Microchip/MPLAB C32 Suite/bin/../lib/gcc/pic32mx/3.4.4/../../../../pic32mx/lib/size\libc.a(default-nmi-handler.o)
 .reginfo       0x00000000       0x18 C:/Program Files (x86)/Microchip/MPLAB C32 Suite/bin/../lib/gcc/pic32mx/3.4.4/../../../../pic32mx/lib/size\libc.a(default-nmi-handler.o)
 .pdr           0x00000000       0x20 C:/Program Files (x86)/Microchip/MPLAB C32 Suite/bin/../lib/gcc/pic32mx/3.4.4/../../../../pic32mx/lib/size\libc.a(default-nmi-handler.o)
 .text          0x00000000        0x0 C:/Program Files (x86)/Microchip/MPLAB C32 Suite/bin/../lib/gcc/pic32mx/3.4.4/../../../../pic32mx/lib/size\libc.a(errno.o)
 .data          0x00000000        0x0 C:/Program Files (x86)/Microchip/MPLAB C32 Suite/bin/../lib/gcc/pic32mx/3.4.4/../../../../pic32mx/lib/size\libc.a(errno.o)
 .bss           0x00000000        0x0 C:/Program Files (x86)/Microchip/MPLAB C32 Suite/bin/../lib/gcc/pic32mx/3.4.4/../../../../pic32mx/lib/size\libc.a(errno.o)
 .reginfo       0x00000000       0x18 C:/Program Files (x86)/Microchip/MPLAB C32 Suite/bin/../lib/gcc/pic32mx/3.4.4/../../../../pic32mx/lib/size\libc.a(errno.o)
 .pdr           0x00000000        0x0 C:/Program Files (x86)/Microchip/MPLAB C32 Suite/bin/../lib/gcc/pic32mx/3.4.4/../../../../pic32mx/lib/size\libc.a(errno.o)
 .text          0x00000000        0x0 C:/Program Files (x86)/Microchip/MPLAB C32 Suite/bin/../lib/gcc/pic32mx/3.4.4/../../../../pic32mx/lib/size\libc.a(strncmp.o)
 .data          0x00000000        0x0 C:/Program Files (x86)/Microchip/MPLAB C32 Suite/bin/../lib/gcc/pic32mx/3.4.4/../../../../pic32mx/lib/size\libc.a(strncmp.o)
 .bss           0x00000000        0x0 C:/Program Files (x86)/Microchip/MPLAB C32 Suite/bin/../lib/gcc/pic32mx/3.4.4/../../../../pic32mx/lib/size\libc.a(strncmp.o)
 .reginfo       0x00000000       0x18 C:/Program Files (x86)/Microchip/MPLAB C32 Suite/bin/../lib/gcc/pic32mx/3.4.4/../../../../pic32mx/lib/size\libc.a(strncmp.o)
 .pdr           0x00000000       0x20 C:/Program Files (x86)/Microchip/MPLAB C32 Suite/bin/../lib/gcc/pic32mx/3.4.4/../../../../pic32mx/lib/size\libc.a(strncmp.o)
 .text          0x00000000        0x0 C:/Program Files (x86)/Microchip/MPLAB C32 Suite/bin/../lib/gcc/pic32mx/3.4.4/../../../../pic32mx/lib/size\libmchp_peripheral.a(read_core_timer_lib.o)
 .data          0x00000000        0x0 C:/Program Files (x86)/Microchip/MPLAB C32 Suite/bin/../lib/gcc/pic32mx/3.4.4/../../../../pic32mx/lib/size\libmchp_peripheral.a(read_core_timer_lib.o)
 .bss           0x00000000        0x0 C:/Program Files (x86)/Microchip/MPLAB C32 Suite/bin/../lib/gcc/pic32mx/3.4.4/../../../../pic32mx/lib/size\libmchp_peripheral.a(read_core_timer_lib.o)
 .reginfo       0x00000000       0x18 C:/Program Files (x86)/Microchip/MPLAB C32 Suite/bin/../lib/gcc/pic32mx/3.4.4/../../../../pic32mx/lib/size\libmchp_peripheral.a(read_core_timer_lib.o)
 .pdr           0x00000000       0x20 C:/Program Files (x86)/Microchip/MPLAB C32 Suite/bin/../lib/gcc/pic32mx/3.4.4/../../../../pic32mx/lib/size\libmchp_peripheral.a(read_core_timer_lib.o)
 .text          0x00000000        0x0 C:/Program Files (x86)/Microchip/MPLAB C32 Suite/bin/../lib/gcc/pic32mx/3.4.4/../../../../pic32mx/lib/size\libmchp_peripheral_32MX795F512L.a(eth_ack_packet_lib.o)
 .data          0x00000000        0x0 C:/Program Files (x86)/Microchip/MPLAB C32 Suite/bin/../lib/gcc/pic32mx/3.4.4/../../../../pic32mx/lib/size\libmchp_peripheral_32MX795F512L.a(eth_ack_packet_lib.o)
 .bss           0x00000000        0x0 C:/Program Files (x86)/Microchip/MPLAB C32 Suite/bin/../lib/gcc/pic32mx/3.4.4/../../../../pic32mx/lib/size\libmchp_peripheral_32MX795F512L.a(eth_ack_packet_lib.o)
 .reginfo       0x00000000       0x18 C:/Program Files (x86)/Microchip/MPLAB C32 Suite/bin/../lib/gcc/pic32mx/3.4.4/../../../../pic32mx/lib/size\libmchp_peripheral_32MX795F512L.a(eth_ack_packet_lib.o)
 .pdr           0x00000000       0xc0 C:/Program Files (x86)/Microchip/MPLAB C32 Suite/bin/../lib/gcc/pic32mx/3.4.4/../../../../pic32mx/lib/size\libmchp_peripheral_32MX795F512L.a(eth_ack_packet_lib.o)
 .text.EthTxAckBuffer
                0x00000000       0x30 C:/Program Files (x86)/Microchip/MPLAB C32 Suite/bin/../lib/gcc/pic32mx/3.4.4/../../../../pic32mx/lib/size\libmchp_peripheral_32MX795F512L.a(eth_ack_packet_lib.o)
 .text.EthRxAckBuffer
                0x00000000       0x1c C:/Program Files (x86)/Microchip/MPLAB C32 Suite/bin/../lib/gcc/pic32mx/3.4.4/../../../../pic32mx/lib/size\libmchp_peripheral_32MX795F512L.a(eth_ack_packet_lib.o)
 .text          0x00000000        0x0 C:/Program Files (x86)/Microchip/MPLAB C32 Suite/bin/../lib/gcc/pic32mx/3.4.4/../../../../pic32mx/lib/size\libmchp_peripheral_32MX795F512L.a(eth_descriptors_add_lib.o)
 .data          0x00000000        0x0 C:/Program Files (x86)/Microchip/MPLAB C32 Suite/bin/../lib/gcc/pic32mx/3.4.4/../../../../pic32mx/lib/size\libmchp_peripheral_32MX795F512L.a(eth_descriptors_add_lib.o)
 .bss           0x00000000        0x0 C:/Program Files (x86)/Microchip/MPLAB C32 Suite/bin/../lib/gcc/pic32mx/3.4.4/../../../../pic32mx/lib/size\libmchp_peripheral_32MX795F512L.a(eth_descriptors_add_lib.o)
 .reginfo       0x00000000       0x18 C:/Program Files (x86)/Microchip/MPLAB C32 Suite/bin/../lib/gcc/pic32mx/3.4.4/../../../../pic32mx/lib/size\libmchp_peripheral_32MX795F512L.a(eth_descriptors_add_lib.o)
 .pdr           0x00000000       0x40 C:/Program Files (x86)/Microchip/MPLAB C32 Suite/bin/../lib/gcc/pic32mx/3.4.4/../../../../pic32mx/lib/size\libmchp_peripheral_32MX795F512L.a(eth_descriptors_add_lib.o)
 .text.EthDescriptorsAdd
                0x00000000      0x148 C:/Program Files (x86)/Microchip/MPLAB C32 Suite/bin/../lib/gcc/pic32mx/3.4.4/../../../../pic32mx/lib/size\libmchp_peripheral_32MX795F512L.a(eth_descriptors_add_lib.o)
 .text          0x00000000        0x0 C:/Program Files (x86)/Microchip/MPLAB C32 Suite/bin/../lib/gcc/pic32mx/3.4.4/../../../../pic32mx/lib/size\libmchp_peripheral_32MX795F512L.a(eth_init_lib.o)
 .data          0x00000000        0x0 C:/Program Files (x86)/Microchip/MPLAB C32 Suite/bin/../lib/gcc/pic32mx/3.4.4/../../../../pic32mx/lib/size\libmchp_peripheral_32MX795F512L.a(eth_init_lib.o)
 .bss           0x00000000        0x0 C:/Program Files (x86)/Microchip/MPLAB C32 Suite/bin/../lib/gcc/pic32mx/3.4.4/../../../../pic32mx/lib/size\libmchp_peripheral_32MX795F512L.a(eth_init_lib.o)
 .reginfo       0x00000000       0x18 C:/Program Files (x86)/Microchip/MPLAB C32 Suite/bin/../lib/gcc/pic32mx/3.4.4/../../../../pic32mx/lib/size\libmchp_peripheral_32MX795F512L.a(eth_init_lib.o)
 .pdr           0x00000000       0x20 C:/Program Files (x86)/Microchip/MPLAB C32 Suite/bin/../lib/gcc/pic32mx/3.4.4/../../../../pic32mx/lib/size\libmchp_peripheral_32MX795F512L.a(eth_init_lib.o)
 .text          0x00000000        0x0 C:/Program Files (x86)/Microchip/MPLAB C32 Suite/bin/../lib/gcc/pic32mx/3.4.4/../../../../pic32mx/lib/size\libmchp_peripheral_32MX795F512L.a(eth_mac_open_lib.o)
 .data          0x00000000        0x0 C:/Program Files (x86)/Microchip/MPLAB C32 Suite/bin/../lib/gcc/pic32mx/3.4.4/../../../../pic32mx/lib/size\libmchp_peripheral_32MX795F512L.a(eth_mac_open_lib.o)
 .bss           0x00000000        0x0 C:/Program Files (x86)/Microchip/MPLAB C32 Suite/bin/../lib/gcc/pic32mx/3.4.4/../../../../pic32mx/lib/size\libmchp_peripheral_32MX795F512L.a(eth_mac_open_lib.o)
 .reginfo       0x00000000       0x18 C:/Program Files (x86)/Microchip/MPLAB C32 Suite/bin/../lib/gcc/pic32mx/3.4.4/../../../../pic32mx/lib/size\libmchp_peripheral_32MX795F512L.a(eth_mac_open_lib.o)
 .pdr           0x00000000       0x20 C:/Program Files (x86)/Microchip/MPLAB C32 Suite/bin/../lib/gcc/pic32mx/3.4.4/../../../../pic32mx/lib/size\libmchp_peripheral_32MX795F512L.a(eth_mac_open_lib.o)
 .text          0x00000000        0x0 C:/Program Files (x86)/Microchip/MPLAB C32 Suite/bin/../lib/gcc/pic32mx/3.4.4/../../../../pic32mx/lib/size\libmchp_peripheral_32MX795F512L.a(eth_mac_set_address_max_lib.o)
 .data          0x00000000        0x0 C:/Program Files (x86)/Microchip/MPLAB C32 Suite/bin/../lib/gcc/pic32mx/3.4.4/../../../../pic32mx/lib/size\libmchp_peripheral_32MX795F512L.a(eth_mac_set_address_max_lib.o)
 .bss           0x00000000        0x0 C:/Program Files (x86)/Microchip/MPLAB C32 Suite/bin/../lib/gcc/pic32mx/3.4.4/../../../../pic32mx/lib/size\libmchp_peripheral_32MX795F512L.a(eth_mac_set_address_max_lib.o)
 .reginfo       0x00000000       0x18 C:/Program Files (x86)/Microchip/MPLAB C32 Suite/bin/../lib/gcc/pic32mx/3.4.4/../../../../pic32mx/lib/size\libmchp_peripheral_32MX795F512L.a(eth_mac_set_address_max_lib.o)
 .pdr           0x00000000       0x60 C:/Program Files (x86)/Microchip/MPLAB C32 Suite/bin/../lib/gcc/pic32mx/3.4.4/../../../../pic32mx/lib/size\libmchp_peripheral_32MX795F512L.a(eth_mac_set_address_max_lib.o)
 .text.EthMACGetAddress
                0x00000000       0x44 C:/Program Files (x86)/Microchip/MPLAB C32 Suite/bin/../lib/gcc/pic32mx/3.4.4/../../../../pic32mx/lib/size\libmchp_peripheral_32MX795F512L.a(eth_mac_set_address_max_lib.o)
 .text.EthMACSetMaxFrame
                0x00000000       0x14 C:/Program Files (x86)/Microchip/MPLAB C32 Suite/bin/../lib/gcc/pic32mx/3.4.4/../../../../pic32mx/lib/size\libmchp_peripheral_32MX795F512L.a(eth_mac_set_address_max_lib.o)
 .text          0x00000000        0x0 C:/Program Files (x86)/Microchip/MPLAB C32 Suite/bin/../lib/gcc/pic32mx/3.4.4/../../../../pic32mx/lib/size\libmchp_peripheral_32MX795F512L.a(eth_rx_buffers_append_lib.o)
 .data          0x00000000        0x0 C:/Program Files (x86)/Microchip/MPLAB C32 Suite/bin/../lib/gcc/pic32mx/3.4.4/../../../../pic32mx/lib/size\libmchp_peripheral_32MX795F512L.a(eth_rx_buffers_append_lib.o)
 .bss           0x00000000        0x0 C:/Program Files (x86)/Microchip/MPLAB C32 Suite/bin/../lib/gcc/pic32mx/3.4.4/../../../../pic32mx/lib/size\libmchp_peripheral_32MX795F512L.a(eth_rx_buffers_append_lib.o)
 .reginfo       0x00000000       0x18 C:/Program Files (x86)/Microchip/MPLAB C32 Suite/bin/../lib/gcc/pic32mx/3.4.4/../../../../pic32mx/lib/size\libmchp_peripheral_32MX795F512L.a(eth_rx_buffers_append_lib.o)
 .pdr           0x00000000       0x20 C:/Program Files (x86)/Microchip/MPLAB C32 Suite/bin/../lib/gcc/pic32mx/3.4.4/../../../../pic32mx/lib/size\libmchp_peripheral_32MX795F512L.a(eth_rx_buffers_append_lib.o)
 .text          0x00000000        0x0 C:/Program Files (x86)/Microchip/MPLAB C32 Suite/bin/../lib/gcc/pic32mx/3.4.4/../../../../pic32mx/lib/size\libmchp_peripheral_32MX795F512L.a(eth_rx_filters_lib.o)
 .data          0x00000000        0x0 C:/Program Files (x86)/Microchip/MPLAB C32 Suite/bin/../lib/gcc/pic32mx/3.4.4/../../../../pic32mx/lib/size\libmchp_peripheral_32MX795F512L.a(eth_rx_filters_lib.o)
 .bss           0x00000000        0x0 C:/Program Files (x86)/Microchip/MPLAB C32 Suite/bin/../lib/gcc/pic32mx/3.4.4/../../../../pic32mx/lib/size\libmchp_peripheral_32MX795F512L.a(eth_rx_filters_lib.o)
 .reginfo       0x00000000       0x18 C:/Program Files (x86)/Microchip/MPLAB C32 Suite/bin/../lib/gcc/pic32mx/3.4.4/../../../../pic32mx/lib/size\libmchp_peripheral_32MX795F512L.a(eth_rx_filters_lib.o)
 .pdr           0x00000000       0xc0 C:/Program Files (x86)/Microchip/MPLAB C32 Suite/bin/../lib/gcc/pic32mx/3.4.4/../../../../pic32mx/lib/size\libmchp_peripheral_32MX795F512L.a(eth_rx_filters_lib.o)
 .text.EthRxFiltersWrite
                0x00000000       0x10 C:/Program Files (x86)/Microchip/MPLAB C32 Suite/bin/../lib/gcc/pic32mx/3.4.4/../../../../pic32mx/lib/size\libmchp_peripheral_32MX795F512L.a(eth_rx_filters_lib.o)
 .text.EthRxFiltersHTSet
                0x00000000       0x1c C:/Program Files (x86)/Microchip/MPLAB C32 Suite/bin/../lib/gcc/pic32mx/3.4.4/../../../../pic32mx/lib/size\libmchp_peripheral_32MX795F512L.a(eth_rx_filters_lib.o)
 .text.EthRxFiltersPMSet
                0x00000000       0x7c C:/Program Files (x86)/Microchip/MPLAB C32 Suite/bin/../lib/gcc/pic32mx/3.4.4/../../../../pic32mx/lib/size\libmchp_peripheral_32MX795F512L.a(eth_rx_filters_lib.o)
 .text.EthRxFiltersPMClr
                0x00000000       0x14 C:/Program Files (x86)/Microchip/MPLAB C32 Suite/bin/../lib/gcc/pic32mx/3.4.4/../../../../pic32mx/lib/size\libmchp_peripheral_32MX795F512L.a(eth_rx_filters_lib.o)
 .text          0x00000000        0x0 C:/Program Files (x86)/Microchip/MPLAB C32 Suite/bin/../lib/gcc/pic32mx/3.4.4/../../../../pic32mx/lib/size\libmchp_peripheral_32MX795F512L.a(eth_rx_get_packet_lib.o)
 .data          0x00000000        0x0 C:/Program Files (x86)/Microchip/MPLAB C32 Suite/bin/../lib/gcc/pic32mx/3.4.4/../../../../pic32mx/lib/size\libmchp_peripheral_32MX795F512L.a(eth_rx_get_packet_lib.o)
 .bss           0x00000000        0x0 C:/Program Files (x86)/Microchip/MPLAB C32 Suite/bin/../lib/gcc/pic32mx/3.4.4/../../../../pic32mx/lib/size\libmchp_peripheral_32MX795F512L.a(eth_rx_get_packet_lib.o)
 .reginfo       0x00000000       0x18 C:/Program Files (x86)/Microchip/MPLAB C32 Suite/bin/../lib/gcc/pic32mx/3.4.4/../../../../pic32mx/lib/size\libmchp_peripheral_32MX795F512L.a(eth_rx_get_packet_lib.o)
 .pdr           0x00000000       0x40 C:/Program Files (x86)/Microchip/MPLAB C32 Suite/bin/../lib/gcc/pic32mx/3.4.4/../../../../pic32mx/lib/size\libmchp_peripheral_32MX795F512L.a(eth_rx_get_packet_lib.o)
 .text          0x00000000        0x0 C:/Program Files (x86)/Microchip/MPLAB C32 Suite/bin/../lib/gcc/pic32mx/3.4.4/../../../../pic32mx/lib/size\libmchp_peripheral_32MX795F512L.a(eth_rx_set_buffer_size_lib.o)
 .data          0x00000000        0x0 C:/Program Files (x86)/Microchip/MPLAB C32 Suite/bin/../lib/gcc/pic32mx/3.4.4/../../../../pic32mx/lib/size\libmchp_peripheral_32MX795F512L.a(eth_rx_set_buffer_size_lib.o)
 .bss           0x00000000        0x0 C:/Program Files (x86)/Microchip/MPLAB C32 Suite/bin/../lib/gcc/pic32mx/3.4.4/../../../../pic32mx/lib/size\libmchp_peripheral_32MX795F512L.a(eth_rx_set_buffer_size_lib.o)
 .reginfo       0x00000000       0x18 C:/Program Files (x86)/Microchip/MPLAB C32 Suite/bin/../lib/gcc/pic32mx/3.4.4/../../../../pic32mx/lib/size\libmchp_peripheral_32MX795F512L.a(eth_rx_set_buffer_size_lib.o)
 .pdr           0x00000000       0x20 C:/Program Files (x86)/Microchip/MPLAB C32 Suite/bin/../lib/gcc/pic32mx/3.4.4/../../../../pic32mx/lib/size\libmchp_peripheral_32MX795F512L.a(eth_rx_set_buffer_size_lib.o)
 .text          0x00000000        0x0 C:/Program Files (x86)/Microchip/MPLAB C32 Suite/bin/../lib/gcc/pic32mx/3.4.4/../../../../pic32mx/lib/size\libmchp_peripheral_32MX795F512L.a(eth_tx_packet_lib.o)
 .data          0x00000000        0x0 C:/Program Files (x86)/Microchip/MPLAB C32 Suite/bin/../lib/gcc/pic32mx/3.4.4/../../../../pic32mx/lib/size\libmchp_peripheral_32MX795F512L.a(eth_tx_packet_lib.o)
 .bss           0x00000000        0x0 C:/Program Files (x86)/Microchip/MPLAB C32 Suite/bin/../lib/gcc/pic32mx/3.4.4/../../../../pic32mx/lib/size\libmchp_peripheral_32MX795F512L.a(eth_tx_packet_lib.o)
 .reginfo       0x00000000       0x18 C:/Program Files (x86)/Microchip/MPLAB C32 Suite/bin/../lib/gcc/pic32mx/3.4.4/../../../../pic32mx/lib/size\libmchp_peripheral_32MX795F512L.a(eth_tx_packet_lib.o)
 .pdr           0x00000000       0xc0 C:/Program Files (x86)/Microchip/MPLAB C32 Suite/bin/../lib/gcc/pic32mx/3.4.4/../../../../pic32mx/lib/size\libmchp_peripheral_32MX795F512L.a(eth_tx_packet_lib.o)
 .text.EthTxSendPacket
                0x00000000      0x150 C:/Program Files (x86)/Microchip/MPLAB C32 Suite/bin/../lib/gcc/pic32mx/3.4.4/../../../../pic32mx/lib/size\libmchp_peripheral_32MX795F512L.a(eth_tx_packet_lib.o)
 .text._EthFindPacket
                0x00000000       0x44 C:/Program Files (x86)/Microchip/MPLAB C32 Suite/bin/../lib/gcc/pic32mx/3.4.4/../../../../pic32mx/lib/size\libmchp_peripheral_32MX795F512L.a(eth_tx_packet_lib.o)
 .text.EthTxGetBufferStatus
                0x00000000       0x68 C:/Program Files (x86)/Microchip/MPLAB C32 Suite/bin/../lib/gcc/pic32mx/3.4.4/../../../../pic32mx/lib/size\libmchp_peripheral_32MX795F512L.a(eth_tx_packet_lib.o)
 .text          0x00000000        0x0 C:/Program Files (x86)/Microchip/MPLAB C32 Suite/bin/../lib/gcc/pic32mx/3.4.4/../../../../pic32mx/lib/size\libmchp_peripheral_32MX795F512L.a(_eth_append_busy_list_lib.o)
 .data          0x00000000        0x0 C:/Program Files (x86)/Microchip/MPLAB C32 Suite/bin/../lib/gcc/pic32mx/3.4.4/../../../../pic32mx/lib/size\libmchp_peripheral_32MX795F512L.a(_eth_append_busy_list_lib.o)
 .bss           0x00000000        0x0 C:/Program Files (x86)/Microchip/MPLAB C32 Suite/bin/../lib/gcc/pic32mx/3.4.4/../../../../pic32mx/lib/size\libmchp_peripheral_32MX795F512L.a(_eth_append_busy_list_lib.o)
 .reginfo       0x00000000       0x18 C:/Program Files (x86)/Microchip/MPLAB C32 Suite/bin/../lib/gcc/pic32mx/3.4.4/../../../../pic32mx/lib/size\libmchp_peripheral_32MX795F512L.a(_eth_append_busy_list_lib.o)
 .pdr           0x00000000       0x20 C:/Program Files (x86)/Microchip/MPLAB C32 Suite/bin/../lib/gcc/pic32mx/3.4.4/../../../../pic32mx/lib/size\libmchp_peripheral_32MX795F512L.a(_eth_append_busy_list_lib.o)
 .text          0x00000000        0x0 C:/Program Files (x86)/Microchip/MPLAB C32 Suite/bin/../lib/gcc/pic32mx/3.4.4/../../../../pic32mx/lib/size\libmchp_peripheral_32MX795F512L.a(eth_miim_access.o)
 .data          0x00000000        0x0 C:/Program Files (x86)/Microchip/MPLAB C32 Suite/bin/../lib/gcc/pic32mx/3.4.4/../../../../pic32mx/lib/size\libmchp_peripheral_32MX795F512L.a(eth_miim_access.o)
 .bss           0x00000000        0x0 C:/Program Files (x86)/Microchip/MPLAB C32 Suite/bin/../lib/gcc/pic32mx/3.4.4/../../../../pic32mx/lib/size\libmchp_peripheral_32MX795F512L.a(eth_miim_access.o)
 .reginfo       0x00000000       0x18 C:/Program Files (x86)/Microchip/MPLAB C32 Suite/bin/../lib/gcc/pic32mx/3.4.4/../../../../pic32mx/lib/size\libmchp_peripheral_32MX795F512L.a(eth_miim_access.o)
 .pdr           0x00000000       0xc0 C:/Program Files (x86)/Microchip/MPLAB C32 Suite/bin/../lib/gcc/pic32mx/3.4.4/../../../../pic32mx/lib/size\libmchp_peripheral_32MX795F512L.a(eth_miim_access.o)
 .text          0x00000000        0x0 C:/Program Files (x86)/Microchip/MPLAB C32 Suite/bin/../lib/gcc/pic32mx/3.4.4/../../../../pic32mx/lib/size\libmchp_peripheral_32MX795F512L.a(soft_reset_lib.o)
 .data          0x00000000        0x0 C:/Program Files (x86)/Microchip/MPLAB C32 Suite/bin/../lib/gcc/pic32mx/3.4.4/../../../../pic32mx/lib/size\libmchp_peripheral_32MX795F512L.a(soft_reset_lib.o)
 .bss           0x00000000        0x0 C:/Program Files (x86)/Microchip/MPLAB C32 Suite/bin/../lib/gcc/pic32mx/3.4.4/../../../../pic32mx/lib/size\libmchp_peripheral_32MX795F512L.a(soft_reset_lib.o)
 .reginfo       0x00000000       0x18 C:/Program Files (x86)/Microchip/MPLAB C32 Suite/bin/../lib/gcc/pic32mx/3.4.4/../../../../pic32mx/lib/size\libmchp_peripheral_32MX795F512L.a(soft_reset_lib.o)
 .pdr           0x00000000       0x20 C:/Program Files (x86)/Microchip/MPLAB C32 Suite/bin/../lib/gcc/pic32mx/3.4.4/../../../../pic32mx/lib/size\libmchp_peripheral_32MX795F512L.a(soft_reset_lib.o)
 .text          0x00000000        0x0 C:/Program Files (x86)/Microchip/MPLAB C32 Suite/bin/../lib/gcc/pic32mx/3.4.4/../../../../pic32mx/lib/size\libmchp_peripheral_32MX795F512L.a(pcache.o)
 .data          0x00000000        0x0 C:/Program Files (x86)/Microchip/MPLAB C32 Suite/bin/../lib/gcc/pic32mx/3.4.4/../../../../pic32mx/lib/size\libmchp_peripheral_32MX795F512L.a(pcache.o)
 .bss           0x00000000        0x0 C:/Program Files (x86)/Microchip/MPLAB C32 Suite/bin/../lib/gcc/pic32mx/3.4.4/../../../../pic32mx/lib/size\libmchp_peripheral_32MX795F512L.a(pcache.o)
 .reginfo       0x00000000       0x18 C:/Program Files (x86)/Microchip/MPLAB C32 Suite/bin/../lib/gcc/pic32mx/3.4.4/../../../../pic32mx/lib/size\libmchp_peripheral_32MX795F512L.a(pcache.o)
 .pdr           0x00000000       0x40 C:/Program Files (x86)/Microchip/MPLAB C32 Suite/bin/../lib/gcc/pic32mx/3.4.4/../../../../pic32mx/lib/size\libmchp_peripheral_32MX795F512L.a(pcache.o)
 .text.CheKseg0CacheOff
                0x00000000       0x18 C:/Program Files (x86)/Microchip/MPLAB C32 Suite/bin/../lib/gcc/pic32mx/3.4.4/../../../../pic32mx/lib/size\libmchp_peripheral_32MX795F512L.a(pcache.o)
 .text          0x00000000        0x0 C:/Program Files (x86)/Microchip/MPLAB C32 Suite/bin/../lib/gcc/pic32mx/3.4.4/../../../../pic32mx/lib/size\libmchp_peripheral_32MX795F512L.a(int_disable_interrupts_lib.o)
 .data          0x00000000        0x0 C:/Program Files (x86)/Microchip/MPLAB C32 Suite/bin/../lib/gcc/pic32mx/3.4.4/../../../../pic32mx/lib/size\libmchp_peripheral_32MX795F512L.a(int_disable_interrupts_lib.o)
 .bss           0x00000000        0x0 C:/Program Files (x86)/Microchip/MPLAB C32 Suite/bin/../lib/gcc/pic32mx/3.4.4/../../../../pic32mx/lib/size\libmchp_peripheral_32MX795F512L.a(int_disable_interrupts_lib.o)
 .reginfo       0x00000000       0x18 C:/Program Files (x86)/Microchip/MPLAB C32 Suite/bin/../lib/gcc/pic32mx/3.4.4/../../../../pic32mx/lib/size\libmchp_peripheral_32MX795F512L.a(int_disable_interrupts_lib.o)
 .pdr           0x00000000       0x20 C:/Program Files (x86)/Microchip/MPLAB C32 Suite/bin/../lib/gcc/pic32mx/3.4.4/../../../../pic32mx/lib/size\libmchp_peripheral_32MX795F512L.a(int_disable_interrupts_lib.o)
 .text          0x00000000        0x0 C:/Program Files (x86)/Microchip/MPLAB C32 Suite/bin/../lib/gcc/pic32mx/3.4.4/../../../../pic32mx/lib/size\libmchp_peripheral_32MX795F512L.a(int_restore_interrupts_lib.o)
 .data          0x00000000        0x0 C:/Program Files (x86)/Microchip/MPLAB C32 Suite/bin/../lib/gcc/pic32mx/3.4.4/../../../../pic32mx/lib/size\libmchp_peripheral_32MX795F512L.a(int_restore_interrupts_lib.o)
 .bss           0x00000000        0x0 C:/Program Files (x86)/Microchip/MPLAB C32 Suite/bin/../lib/gcc/pic32mx/3.4.4/../../../../pic32mx/lib/size\libmchp_peripheral_32MX795F512L.a(int_restore_interrupts_lib.o)
 .reginfo       0x00000000       0x18 C:/Program Files (x86)/Microchip/MPLAB C32 Suite/bin/../lib/gcc/pic32mx/3.4.4/../../../../pic32mx/lib/size\libmchp_peripheral_32MX795F512L.a(int_restore_interrupts_lib.o)
 .pdr           0x00000000       0x20 C:/Program Files (x86)/Microchip/MPLAB C32 Suite/bin/../lib/gcc/pic32mx/3.4.4/../../../../pic32mx/lib/size\libmchp_peripheral_32MX795F512L.a(int_restore_interrupts_lib.o)
 .text          0x00000000        0x0 C:/Program Files (x86)/Microchip/MPLAB C32 Suite/bin/../lib/gcc/pic32mx/3.4.4/../../../../pic32mx/lib/size\libmchp_peripheral_32MX795F512L.a(int_enable_mv_int_lib.o)
 .data          0x00000000        0x0 C:/Program Files (x86)/Microchip/MPLAB C32 Suite/bin/../lib/gcc/pic32mx/3.4.4/../../../../pic32mx/lib/size\libmchp_peripheral_32MX795F512L.a(int_enable_mv_int_lib.o)
 .bss           0x00000000        0x0 C:/Program Files (x86)/Microchip/MPLAB C32 Suite/bin/../lib/gcc/pic32mx/3.4.4/../../../../pic32mx/lib/size\libmchp_peripheral_32MX795F512L.a(int_enable_mv_int_lib.o)
 .reginfo       0x00000000       0x18 C:/Program Files (x86)/Microchip/MPLAB C32 Suite/bin/../lib/gcc/pic32mx/3.4.4/../../../../pic32mx/lib/size\libmchp_peripheral_32MX795F512L.a(int_enable_mv_int_lib.o)
 .pdr           0x00000000       0x20 C:/Program Files (x86)/Microchip/MPLAB C32 Suite/bin/../lib/gcc/pic32mx/3.4.4/../../../../pic32mx/lib/size\libmchp_peripheral_32MX795F512L.a(int_enable_mv_int_lib.o)
 .text          0x00000000        0x0 C:/Program Files (x86)/Microchip/MPLAB C32 Suite/bin/../lib/gcc/pic32mx/3.4.4/../../../../pic32mx/lib/size\libmchp_peripheral_32MX795F512L.a(int_tbl_lib.o)
 .data          0x00000000        0x0 C:/Program Files (x86)/Microchip/MPLAB C32 Suite/bin/../lib/gcc/pic32mx/3.4.4/../../../../pic32mx/lib/size\libmchp_peripheral_32MX795F512L.a(int_tbl_lib.o)
 .bss           0x00000000        0x0 C:/Program Files (x86)/Microchip/MPLAB C32 Suite/bin/../lib/gcc/pic32mx/3.4.4/../../../../pic32mx/lib/size\libmchp_peripheral_32MX795F512L.a(int_tbl_lib.o)
 .reginfo       0x00000000       0x18 C:/Program Files (x86)/Microchip/MPLAB C32 Suite/bin/../lib/gcc/pic32mx/3.4.4/../../../../pic32mx/lib/size\libmchp_peripheral_32MX795F512L.a(int_tbl_lib.o)
 .pdr           0x00000000      0x120 C:/Program Files (x86)/Microchip/MPLAB C32 Suite/bin/../lib/gcc/pic32mx/3.4.4/../../../../pic32mx/lib/size\libmchp_peripheral_32MX795F512L.a(int_tbl_lib.o)
 .rodata.__IntVectorTbl
                0x00000000      0x2b8 C:/Program Files (x86)/Microchip/MPLAB C32 Suite/bin/../lib/gcc/pic32mx/3.4.4/../../../../pic32mx/lib/size\libmchp_peripheral_32MX795F512L.a(int_tbl_lib.o)
 .text.INTSetFlag
                0x00000000       0x28 C:/Program Files (x86)/Microchip/MPLAB C32 Suite/bin/../lib/gcc/pic32mx/3.4.4/../../../../pic32mx/lib/size\libmchp_peripheral_32MX795F512L.a(int_tbl_lib.o)
 .text.INTGetFlag
                0x00000000       0x28 C:/Program Files (x86)/Microchip/MPLAB C32 Suite/bin/../lib/gcc/pic32mx/3.4.4/../../../../pic32mx/lib/size\libmchp_peripheral_32MX795F512L.a(int_tbl_lib.o)
 .text.INTGetEnable
                0x00000000       0x28 C:/Program Files (x86)/Microchip/MPLAB C32 Suite/bin/../lib/gcc/pic32mx/3.4.4/../../../../pic32mx/lib/size\libmchp_peripheral_32MX795F512L.a(int_tbl_lib.o)
 .text.INTSetVectorPriority
                0x00000000       0x3c C:/Program Files (x86)/Microchip/MPLAB C32 Suite/bin/../lib/gcc/pic32mx/3.4.4/../../../../pic32mx/lib/size\libmchp_peripheral_32MX795F512L.a(int_tbl_lib.o)
 .text.INTGetVectorPriority
                0x00000000       0x2c C:/Program Files (x86)/Microchip/MPLAB C32 Suite/bin/../lib/gcc/pic32mx/3.4.4/../../../../pic32mx/lib/size\libmchp_peripheral_32MX795F512L.a(int_tbl_lib.o)
 .text.INTSetVectorSubPriority
                0x00000000       0x3c C:/Program Files (x86)/Microchip/MPLAB C32 Suite/bin/../lib/gcc/pic32mx/3.4.4/../../../../pic32mx/lib/size\libmchp_peripheral_32MX795F512L.a(int_tbl_lib.o)
 .text.INTGetVectorSubPriority
                0x00000000       0x2c C:/Program Files (x86)/Microchip/MPLAB C32 Suite/bin/../lib/gcc/pic32mx/3.4.4/../../../../pic32mx/lib/size\libmchp_peripheral_32MX795F512L.a(int_tbl_lib.o)
 .text          0x00000000        0x0 C:/Program Files (x86)/Microchip/MPLAB C32 Suite/bin/../lib/gcc/pic32mx/3.4.4/../../../../pic32mx/lib/size\libmchp_peripheral_32MX795F512L.a(port_set_pins_digital_in_lib.o)
 .data          0x00000000        0x0 C:/Program Files (x86)/Microchip/MPLAB C32 Suite/bin/../lib/gcc/pic32mx/3.4.4/../../../../pic32mx/lib/size\libmchp_peripheral_32MX795F512L.a(port_set_pins_digital_in_lib.o)
 .bss           0x00000000        0x0 C:/Program Files (x86)/Microchip/MPLAB C32 Suite/bin/../lib/gcc/pic32mx/3.4.4/../../../../pic32mx/lib/size\libmchp_peripheral_32MX795F512L.a(port_set_pins_digital_in_lib.o)
 .reginfo       0x00000000       0x18 C:/Program Files (x86)/Microchip/MPLAB C32 Suite/bin/../lib/gcc/pic32mx/3.4.4/../../../../pic32mx/lib/size\libmchp_peripheral_32MX795F512L.a(port_set_pins_digital_in_lib.o)
 .pdr           0x00000000       0x20 C:/Program Files (x86)/Microchip/MPLAB C32 Suite/bin/../lib/gcc/pic32mx/3.4.4/../../../../pic32mx/lib/size\libmchp_peripheral_32MX795F512L.a(port_set_pins_digital_in_lib.o)
 .text          0x00000000        0x0 C:/Program Files (x86)/Microchip/MPLAB C32 Suite/bin/../lib/gcc/pic32mx/3.4.4/../../../../pic32mx/lib/size\libmchp_peripheral_32MX795F512L.a(port_set_pins_digital_out_lib.o)
 .data          0x00000000        0x0 C:/Program Files (x86)/Microchip/MPLAB C32 Suite/bin/../lib/gcc/pic32mx/3.4.4/../../../../pic32mx/lib/size\libmchp_peripheral_32MX795F512L.a(port_set_pins_digital_out_lib.o)
 .bss           0x00000000        0x0 C:/Program Files (x86)/Microchip/MPLAB C32 Suite/bin/../lib/gcc/pic32mx/3.4.4/../../../../pic32mx/lib/size\libmchp_peripheral_32MX795F512L.a(port_set_pins_digital_out_lib.o)
 .reginfo       0x00000000       0x18 C:/Program Files (x86)/Microchip/MPLAB C32 Suite/bin/../lib/gcc/pic32mx/3.4.4/../../../../pic32mx/lib/size\libmchp_peripheral_32MX795F512L.a(port_set_pins_digital_out_lib.o)
 .pdr           0x00000000       0x20 C:/Program Files (x86)/Microchip/MPLAB C32 Suite/bin/../lib/gcc/pic32mx/3.4.4/../../../../pic32mx/lib/size\libmchp_peripheral_32MX795F512L.a(port_set_pins_digital_out_lib.o)
 .text          0x00000000        0x0 C:/Program Files (x86)/Microchip/MPLAB C32 Suite/bin/../lib/gcc/pic32mx/3.4.4/../../../../pic32mx/lib/size\libmchp_peripheral_32MX795F512L.a(_ports_tbl_libp.o)
 .data          0x00000000        0x0 C:/Program Files (x86)/Microchip/MPLAB C32 Suite/bin/../lib/gcc/pic32mx/3.4.4/../../../../pic32mx/lib/size\libmchp_peripheral_32MX795F512L.a(_ports_tbl_libp.o)
 .bss           0x00000000        0x0 C:/Program Files (x86)/Microchip/MPLAB C32 Suite/bin/../lib/gcc/pic32mx/3.4.4/../../../../pic32mx/lib/size\libmchp_peripheral_32MX795F512L.a(_ports_tbl_libp.o)
 .reginfo       0x00000000       0x18 C:/Program Files (x86)/Microchip/MPLAB C32 Suite/bin/../lib/gcc/pic32mx/3.4.4/../../../../pic32mx/lib/size\libmchp_peripheral_32MX795F512L.a(_ports_tbl_libp.o)
 .pdr           0x00000000        0x0 C:/Program Files (x86)/Microchip/MPLAB C32 Suite/bin/../lib/gcc/pic32mx/3.4.4/../../../../pic32mx/lib/size\libmchp_peripheral_32MX795F512L.a(_ports_tbl_libp.o)
 .text          0x00000000        0x0 C:/Program Files (x86)/Microchip/MPLAB C32 Suite/bin/../lib/gcc/pic32mx/3.4.4/../../../../pic32mx/lib/size\libmchp_peripheral_32MX795F512L.a(int_enable_interrupts_lib.o)
 .data          0x00000000        0x0 C:/Program Files (x86)/Microchip/MPLAB C32 Suite/bin/../lib/gcc/pic32mx/3.4.4/../../../../pic32mx/lib/size\libmchp_peripheral_32MX795F512L.a(int_enable_interrupts_lib.o)
 .bss           0x00000000        0x0 C:/Program Files (x86)/Microchip/MPLAB C32 Suite/bin/../lib/gcc/pic32mx/3.4.4/../../../../pic32mx/lib/size\libmchp_peripheral_32MX795F512L.a(int_enable_interrupts_lib.o)
 .reginfo       0x00000000       0x18 C:/Program Files (x86)/Microchip/MPLAB C32 Suite/bin/../lib/gcc/pic32mx/3.4.4/../../../../pic32mx/lib/size\libmchp_peripheral_32MX795F512L.a(int_enable_interrupts_lib.o)
 .pdr           0x00000000       0x20 C:/Program Files (x86)/Microchip/MPLAB C32 Suite/bin/../lib/gcc/pic32mx/3.4.4/../../../../pic32mx/lib/size\libmchp_peripheral_32MX795F512L.a(int_enable_interrupts_lib.o)
 .text          0x00000000        0x0 C:/Program Files (x86)/Microchip/MPLAB C32 Suite/bin/../lib/gcc/pic32mx/3.4.4/../../../../pic32mx/lib/./proc/32MX795F512L\processor.o
 .data          0x00000000        0x0 C:/Program Files (x86)/Microchip/MPLAB C32 Suite/bin/../lib/gcc/pic32mx/3.4.4/../../../../pic32mx/lib/./proc/32MX795F512L\processor.o
 .bss           0x00000000        0x0 C:/Program Files (x86)/Microchip/MPLAB C32 Suite/bin/../lib/gcc/pic32mx/3.4.4/../../../../pic32mx/lib/./proc/32MX795F512L\processor.o
 .reginfo       0x00000000       0x18 C:/Program Files (x86)/Microchip/MPLAB C32 Suite/bin/../lib/gcc/pic32mx/3.4.4/../../../../pic32mx/lib/./proc/32MX795F512L\processor.o
 .pdr           0x00000000        0x0 C:/Program Files (x86)/Microchip/MPLAB C32 Suite/bin/../lib/gcc/pic32mx/3.4.4/../../../../pic32mx/lib/./proc/32MX795F512L\processor.o

Memory Configuration

Name             Origin             Length             Attributes
kseg0_program_mem 0x9d000000         0x00080000         xr
kseg0_boot_mem   0x9fc00490         0x00000970
exception_mem    0x9fc01000         0x00001000
kseg1_boot_mem   0xbfc00000         0x00000490
debug_exec_mem   0xbfc02000         0x00000ff0
config3          0xbfc02ff0         0x00000004
config2          0xbfc02ff4         0x00000004
config1          0xbfc02ff8         0x00000004
config0          0xbfc02ffc         0x00000004
kseg1_data_mem   0xa0000000         0x00020000         w !x
sfrs             0xbf800000         0x00100000
configsfrs       0xbfc02ff0         0x00000010
*default*        0x00000000         0xffffffff

Linker script and memory map

LOAD C:/Program Files (x86)/Microchip/MPLAB C32 Suite/bin/../lib/gcc/pic32mx/3.4.4/../../../../pic32mx/lib/size/crt0.o
LOAD Objects - TCPIP Demo App - C32 - PIC32_ENET_SK_DM320004_INTERNAL_ETHERNET\Announce.o
LOAD Objects - TCPIP Demo App - C32 - PIC32_ENET_SK_DM320004_INTERNAL_ETHERNET\ARCFOUR.o
LOAD Objects - TCPIP Demo App - C32 - PIC32_ENET_SK_DM320004_INTERNAL_ETHERNET\ARP.o
LOAD Objects - TCPIP Demo App - C32 - PIC32_ENET_SK_DM320004_INTERNAL_ETHERNET\AutoIP.o
LOAD Objects - TCPIP Demo App - C32 - PIC32_ENET_SK_DM320004_INTERNAL_ETHERNET\BerkeleyAPI.o
LOAD Objects - TCPIP Demo App - C32 - PIC32_ENET_SK_DM320004_INTERNAL_ETHERNET\BigInt.o
LOAD Objects - TCPIP Demo App - C32 - PIC32_ENET_SK_DM320004_INTERNAL_ETHERNET\Delay.o
LOAD Objects - TCPIP Demo App - C32 - PIC32_ENET_SK_DM320004_INTERNAL_ETHERNET\DHCP.o
LOAD Objects - TCPIP Demo App - C32 - PIC32_ENET_SK_DM320004_INTERNAL_ETHERNET\DHCPs.o
LOAD Objects - TCPIP Demo App - C32 - PIC32_ENET_SK_DM320004_INTERNAL_ETHERNET\DNS.o
LOAD Objects - TCPIP Demo App - C32 - PIC32_ENET_SK_DM320004_INTERNAL_ETHERNET\DNSs.o
LOAD Objects - TCPIP Demo App - C32 - PIC32_ENET_SK_DM320004_INTERNAL_ETHERNET\DynDNS.o
LOAD Objects - TCPIP Demo App - C32 - PIC32_ENET_SK_DM320004_INTERNAL_ETHERNET\ENC28J60.o
LOAD Objects - TCPIP Demo App - C32 - PIC32_ENET_SK_DM320004_INTERNAL_ETHERNET\ENCX24J600.o
LOAD Objects - TCPIP Demo App - C32 - PIC32_ENET_SK_DM320004_INTERNAL_ETHERNET\ETHPIC32ExtPhy.o
LOAD Objects - TCPIP Demo App - C32 - PIC32_ENET_SK_DM320004_INTERNAL_ETHERNET\ETHPIC32ExtPhyDP83848.o
LOAD Objects - TCPIP Demo App - C32 - PIC32_ENET_SK_DM320004_INTERNAL_ETHERNET\ETHPIC32IntMac.o
LOAD Objects - TCPIP Demo App - C32 - PIC32_ENET_SK_DM320004_INTERNAL_ETHERNET\FileSystem.o
LOAD Objects - TCPIP Demo App - C32 - PIC32_ENET_SK_DM320004_INTERNAL_ETHERNET\FTP.o
LOAD Objects - TCPIP Demo App - C32 - PIC32_ENET_SK_DM320004_INTERNAL_ETHERNET\Hashes.o
LOAD Objects - TCPIP Demo App - C32 - PIC32_ENET_SK_DM320004_INTERNAL_ETHERNET\Helpers.o
LOAD Objects - TCPIP Demo App - C32 - PIC32_ENET_SK_DM320004_INTERNAL_ETHERNET\HTTP2.o
LOAD Objects - TCPIP Demo App - C32 - PIC32_ENET_SK_DM320004_INTERNAL_ETHERNET\HTTP.o
LOAD Objects - TCPIP Demo App - C32 - PIC32_ENET_SK_DM320004_INTERNAL_ETHERNET\ICMP.o
LOAD Objects - TCPIP Demo App - C32 - PIC32_ENET_SK_DM320004_INTERNAL_ETHERNET\IP.o
LOAD Objects - TCPIP Demo App - C32 - PIC32_ENET_SK_DM320004_INTERNAL_ETHERNET\LCDBlocking.o
LOAD Objects - TCPIP Demo App - C32 - PIC32_ENET_SK_DM320004_INTERNAL_ETHERNET\MPFS2.o
LOAD Objects - TCPIP Demo App - C32 - PIC32_ENET_SK_DM320004_INTERNAL_ETHERNET\MPFS.o
LOAD Objects - TCPIP Demo App - C32 - PIC32_ENET_SK_DM320004_INTERNAL_ETHERNET\NBNS.o
LOAD Objects - TCPIP Demo App - C32 - PIC32_ENET_SK_DM320004_INTERNAL_ETHERNET\Random.o
LOAD Objects - TCPIP Demo App - C32 - PIC32_ENET_SK_DM320004_INTERNAL_ETHERNET\Reboot.o
LOAD Objects - TCPIP Demo App - C32 - PIC32_ENET_SK_DM320004_INTERNAL_ETHERNET\RSA.o
LOAD Objects - TCPIP Demo App - C32 - PIC32_ENET_SK_DM320004_INTERNAL_ETHERNET\SMTP.o
LOAD Objects - TCPIP Demo App - C32 - PIC32_ENET_SK_DM320004_INTERNAL_ETHERNET\SNMP.o
LOAD Objects - TCPIP Demo App - C32 - PIC32_ENET_SK_DM320004_INTERNAL_ETHERNET\SNMPv3.o
LOAD Objects - TCPIP Demo App - C32 - PIC32_ENET_SK_DM320004_INTERNAL_ETHERNET\SNMPv3USM.o
LOAD Objects - TCPIP Demo App - C32 - PIC32_ENET_SK_DM320004_INTERNAL_ETHERNET\SNTP.o
LOAD Objects - TCPIP Demo App - C32 - PIC32_ENET_SK_DM320004_INTERNAL_ETHERNET\SPIEEPROM.o
LOAD Objects - TCPIP Demo App - C32 - PIC32_ENET_SK_DM320004_INTERNAL_ETHERNET\SPIFlash.o
LOAD Objects - TCPIP Demo App - C32 - PIC32_ENET_SK_DM320004_INTERNAL_ETHERNET\SPIRAM.o
LOAD Objects - TCPIP Demo App - C32 - PIC32_ENET_SK_DM320004_INTERNAL_ETHERNET\SSL.o
LOAD Objects - TCPIP Demo App - C32 - PIC32_ENET_SK_DM320004_INTERNAL_ETHERNET\StackTsk.o
LOAD Objects - TCPIP Demo App - C32 - PIC32_ENET_SK_DM320004_INTERNAL_ETHERNET\TCP.o
LOAD Objects - TCPIP Demo App - C32 - PIC32_ENET_SK_DM320004_INTERNAL_ETHERNET\TCPPerformanceTest.o
LOAD Objects - TCPIP Demo App - C32 - PIC32_ENET_SK_DM320004_INTERNAL_ETHERNET\Telnet.o
LOAD Objects - TCPIP Demo App - C32 - PIC32_ENET_SK_DM320004_INTERNAL_ETHERNET\TFTPc.o
LOAD Objects - TCPIP Demo App - C32 - PIC32_ENET_SK_DM320004_INTERNAL_ETHERNET\Tick.o
LOAD Objects - TCPIP Demo App - C32 - PIC32_ENET_SK_DM320004_INTERNAL_ETHERNET\UART2TCPBridge.o
LOAD Objects - TCPIP Demo App - C32 - PIC32_ENET_SK_DM320004_INTERNAL_ETHERNET\UART.o
LOAD Objects - TCPIP Demo App - C32 - PIC32_ENET_SK_DM320004_INTERNAL_ETHERNET\UDP.o
LOAD Objects - TCPIP Demo App - C32 - PIC32_ENET_SK_DM320004_INTERNAL_ETHERNET\UDPPerformanceTest.o
LOAD Objects - TCPIP Demo App - C32 - PIC32_ENET_SK_DM320004_INTERNAL_ETHERNET\ZeroconfHelper.o
LOAD Objects - TCPIP Demo App - C32 - PIC32_ENET_SK_DM320004_INTERNAL_ETHERNET\ZeroconfLinkLocal.o
LOAD Objects - TCPIP Demo App - C32 - PIC32_ENET_SK_DM320004_INTERNAL_ETHERNET\ZeroconfMulticastDNS.o
LOAD Objects - TCPIP Demo App - C32 - PIC32_ENET_SK_DM320004_INTERNAL_ETHERNET\CustomHTTPApp.o
LOAD Objects - TCPIP Demo App - C32 - PIC32_ENET_SK_DM320004_INTERNAL_ETHERNET\CustomSNMPApp.o
LOAD Objects - TCPIP Demo App - C32 - PIC32_ENET_SK_DM320004_INTERNAL_ETHERNET\CustomSSLCert.o
LOAD Objects - TCPIP Demo App - C32 - PIC32_ENET_SK_DM320004_INTERNAL_ETHERNET\MainDemo.o
LOAD Objects - TCPIP Demo App - C32 - PIC32_ENET_SK_DM320004_INTERNAL_ETHERNET\BerkeleyTCPClientDemo.o
LOAD Objects - TCPIP Demo App - C32 - PIC32_ENET_SK_DM320004_INTERNAL_ETHERNET\BerkeleyTCPServerDemo.o
LOAD Objects - TCPIP Demo App - C32 - PIC32_ENET_SK_DM320004_INTERNAL_ETHERNET\BerkeleyUDPClientDemo.o
LOAD Objects - TCPIP Demo App - C32 - PIC32_ENET_SK_DM320004_INTERNAL_ETHERNET\GenericTCPClient.o
LOAD Objects - TCPIP Demo App - C32 - PIC32_ENET_SK_DM320004_INTERNAL_ETHERNET\GenericTCPServer.o
LOAD Objects - TCPIP Demo App - C32 - PIC32_ENET_SK_DM320004_INTERNAL_ETHERNET\LegacyHTTPApp.o
LOAD Objects - TCPIP Demo App - C32 - PIC32_ENET_SK_DM320004_INTERNAL_ETHERNET\PingDemo.o
LOAD Objects - TCPIP Demo App - C32 - PIC32_ENET_SK_DM320004_INTERNAL_ETHERNET\SMTPDemo.o
LOAD Objects - TCPIP Demo App - C32 - PIC32_ENET_SK_DM320004_INTERNAL_ETHERNET\UARTConfig.o
LOAD Objects - TCPIP Demo App - C32 - PIC32_ENET_SK_DM320004_INTERNAL_ETHERNET\MPFSImg2.o
LOAD Objects - TCPIP Demo App - C32 - PIC32_ENET_SK_DM320004_INTERNAL_ETHERNET\MPFSImg.o
LOAD Objects - TCPIP Demo App - C32 - PIC32_ENET_SK_DM320004_INTERNAL_ETHERNET\BigInt_helper_C32.o
LOAD D:\Andy Work\Documents\SO\Slave-PIC32\Microchip\Crypto\AES_PIC32MX.a
                0x00000001                __MPLAB_BUILD = 0x1
                0x00000001                __MPLAB_DEBUG = 0x1
                0x00000001                __MPLAB_DEBUGGER_PIC32MXSK = 0x1
                0x00003e80                _min_heap_size = 0x3e80
                0x00000800                _min_stack_size = 0x800
LOAD C:/Program Files (x86)/Microchip/MPLAB C32 Suite/bin/../lib/gcc/pic32mx/3.4.4/size\libgcc.a
START GROUP
LOAD C:/Program Files (x86)/Microchip/MPLAB C32 Suite/bin/../lib/gcc/pic32mx/3.4.4/../../../../pic32mx/lib/size\libdebug.a
LOAD C:/Program Files (x86)/Microchip/MPLAB C32 Suite/bin/../lib/gcc/pic32mx/3.4.4/../../../../pic32mx/lib/size\libc.a
LOAD C:/Program Files (x86)/Microchip/MPLAB C32 Suite/bin/../lib/gcc/pic32mx/3.4.4/../../../../pic32mx/lib/size\libm.a
LOAD C:/Program Files (x86)/Microchip/MPLAB C32 Suite/bin/../lib/gcc/pic32mx/3.4.4/../../../../pic32mx/lib/size\libe.a
LOAD C:/Program Files (x86)/Microchip/MPLAB C32 Suite/bin/../lib/gcc/pic32mx/3.4.4/../../../../pic32mx/lib/size\libdsp.a
LOAD C:/Program Files (x86)/Microchip/MPLAB C32 Suite/bin/../lib/gcc/pic32mx/3.4.4/../../../../pic32mx/lib/size\libmchp_peripheral.a
LOAD C:/Program Files (x86)/Microchip/MPLAB C32 Suite/bin/../lib/gcc/pic32mx/3.4.4/../../../../pic32mx/lib/size\libmchp_peripheral_32MX795F512L.a
END GROUP
LOAD C:/Program Files (x86)/Microchip/MPLAB C32 Suite/bin/../lib/gcc/pic32mx/3.4.4/size\libgcc.a
                0x00000400                PROVIDE (_min_stack_size, 0x400)
                0x00000000                PROVIDE (_min_heap_size, 0x0)
LOAD C:/Program Files (x86)/Microchip/MPLAB C32 Suite/bin/../lib/gcc/pic32mx/3.4.4/../../../../pic32mx/lib/./proc/32MX795F512L\processor.o
                0x00000001                PROVIDE (_vector_spacing, 0x1)
                0x9fc01000                _ebase_address = 0x9fc01000
                0xbfc00000                _RESET_ADDR = 0xbfc00000
                0xbfc00380                _BEV_EXCPT_ADDR = 0xbfc00380
                0xbfc00480                _DBG_EXCPT_ADDR = 0xbfc00480
                0xbfc02000                _DBG_CODE_ADDR = 0xbfc02000
                0x9fc01180                _GEN_EXCPT_ADDR = (_ebase_address + 0x180)

.config_BFC02FF0
                0xbfc02ff0        0x4
 *(.config_BFC02FF0)
 .config_BFC02FF0
                0xbfc02ff0        0x4 Objects - TCPIP Demo App - C32 - PIC32_ENET_SK_DM320004_INTERNAL_ETHERNET\MainDemo.o

.config_BFC02FF4
                0xbfc02ff4        0x4
 *(.config_BFC02FF4)
 .config_BFC02FF4
                0xbfc02ff4        0x4 Objects - TCPIP Demo App - C32 - PIC32_ENET_SK_DM320004_INTERNAL_ETHERNET\MainDemo.o

.config_BFC02FF8
                0xbfc02ff8        0x4
 *(.config_BFC02FF8)
 .config_BFC02FF8
                0xbfc02ff8        0x4 Objects - TCPIP Demo App - C32 - PIC32_ENET_SK_DM320004_INTERNAL_ETHERNET\MainDemo.o

.config_BFC02FFC
                0xbfc02ffc        0x4
 *(.config_BFC02FFC)
 .config_BFC02FFC
                0xbfc02ffc        0x4 Objects - TCPIP Demo App - C32 - PIC32_ENET_SK_DM320004_INTERNAL_ETHERNET\MainDemo.o

.reset          0xbfc00000       0x10
 *(.reset)
 .reset         0xbfc00000       0x10 C:/Program Files (x86)/Microchip/MPLAB C32 Suite/bin/../lib/gcc/pic32mx/3.4.4/../../../../pic32mx/lib/size/crt0.o
                0xbfc00000                _reset

.bev_excpt      0xbfc00380       0x10
 *(.bev_handler)
 .bev_handler   0xbfc00380       0x10 C:/Program Files (x86)/Microchip/MPLAB C32 Suite/bin/../lib/gcc/pic32mx/3.4.4/../../../../pic32mx/lib/size/crt0.o

.dbg_excpt      0xbfc00480        0x0
                0xbfc00480                . = (. + DEFINED (_DEBUGGER)?0x8:0x0)

.dbg_code       0xbfc02000        0x0
                0xbfc02000                . = (. + DEFINED (_DEBUGGER)?0xff0:0x0)

.app_excpt      0x9fc01180       0x10
 *(.gen_handler)
 .gen_handler   0x9fc01180       0x10 C:/Program Files (x86)/Microchip/MPLAB C32 Suite/bin/../lib/gcc/pic32mx/3.4.4/../../../../pic32mx/lib/size/crt0.o

.vector_0       0x9fc01200        0x0
 *(.vector_0)
                0x00000001                ASSERT (((_vector_spacing == 0x0) || (SIZEOF (.vector_0) <= (_vector_spacing << 0x5))), function at exception vector 0 too large)

.vector_1       0x9fc01220        0x0
 *(.vector_1)
                0x00000001                ASSERT (((_vector_spacing == 0x0) || (SIZEOF (.vector_1) <= (_vector_spacing << 0x5))), function at exception vector 1 too large)

.vector_2       0x9fc01240        0x0
 *(.vector_2)
                0x00000001                ASSERT (((_vector_spacing == 0x0) || (SIZEOF (.vector_2) <= (_vector_spacing << 0x5))), function at exception vector 2 too large)

.vector_3       0x9fc01260        0x0
 *(.vector_3)
                0x00000001                ASSERT (((_vector_spacing == 0x0) || (SIZEOF (.vector_3) <= (_vector_spacing << 0x5))), function at exception vector 3 too large)

.vector_4       0x9fc01280        0x8
 *(.vector_4)
 .vector_4      0x9fc01280        0x8 Objects - TCPIP Demo App - C32 - PIC32_ENET_SK_DM320004_INTERNAL_ETHERNET\Tick.o
                0x00000001                ASSERT (((_vector_spacing == 0x0) || (SIZEOF (.vector_4) <= (_vector_spacing << 0x5))), function at exception vector 4 too large)

.vector_5       0x9fc012a0        0x0
 *(.vector_5)
                0x00000001                ASSERT (((_vector_spacing == 0x0) || (SIZEOF (.vector_5) <= (_vector_spacing << 0x5))), function at exception vector 5 too large)

.vector_6       0x9fc012c0        0x0
 *(.vector_6)
                0x00000001                ASSERT (((_vector_spacing == 0x0) || (SIZEOF (.vector_6) <= (_vector_spacing << 0x5))), function at exception vector 6 too large)

.vector_7       0x9fc012e0        0x0
 *(.vector_7)
                0x00000001                ASSERT (((_vector_spacing == 0x0) || (SIZEOF (.vector_7) <= (_vector_spacing << 0x5))), function at exception vector 7 too large)

.vector_8       0x9fc01300        0x0
 *(.vector_8)
                0x00000001                ASSERT (((_vector_spacing == 0x0) || (SIZEOF (.vector_8) <= (_vector_spacing << 0x5))), function at exception vector 8 too large)

.vector_9       0x9fc01320        0x0
 *(.vector_9)
                0x00000001                ASSERT (((_vector_spacing == 0x0) || (SIZEOF (.vector_9) <= (_vector_spacing << 0x5))), function at exception vector 9 too large)

.vector_10      0x9fc01340        0x0
 *(.vector_10)
                0x00000001                ASSERT (((_vector_spacing == 0x0) || (SIZEOF (.vector_10) <= (_vector_spacing << 0x5))), function at exception vector 10 too large)

.vector_11      0x9fc01360        0x0
 *(.vector_11)
                0x00000001                ASSERT (((_vector_spacing == 0x0) || (SIZEOF (.vector_11) <= (_vector_spacing << 0x5))), function at exception vector 11 too large)

.vector_12      0x9fc01380        0x0
 *(.vector_12)
                0x00000001                ASSERT (((_vector_spacing == 0x0) || (SIZEOF (.vector_12) <= (_vector_spacing << 0x5))), function at exception vector 12 too large)

.vector_13      0x9fc013a0        0x0
 *(.vector_13)
                0x00000001                ASSERT (((_vector_spacing == 0x0) || (SIZEOF (.vector_13) <= (_vector_spacing << 0x5))), function at exception vector 13 too large)

.vector_14      0x9fc013c0        0x0
 *(.vector_14)
                0x00000001                ASSERT (((_vector_spacing == 0x0) || (SIZEOF (.vector_14) <= (_vector_spacing << 0x5))), function at exception vector 14 too large)

.vector_15      0x9fc013e0        0x0
 *(.vector_15)
                0x00000001                ASSERT (((_vector_spacing == 0x0) || (SIZEOF (.vector_15) <= (_vector_spacing << 0x5))), function at exception vector 15 too large)

.vector_16      0x9fc01400        0x0
 *(.vector_16)
                0x00000001                ASSERT (((_vector_spacing == 0x0) || (SIZEOF (.vector_16) <= (_vector_spacing << 0x5))), function at exception vector 16 too large)

.vector_17      0x9fc01420        0x0
 *(.vector_17)
                0x00000001                ASSERT (((_vector_spacing == 0x0) || (SIZEOF (.vector_17) <= (_vector_spacing << 0x5))), function at exception vector 17 too large)

.vector_18      0x9fc01440        0x0
 *(.vector_18)
                0x00000001                ASSERT (((_vector_spacing == 0x0) || (SIZEOF (.vector_18) <= (_vector_spacing << 0x5))), function at exception vector 18 too large)

.vector_19      0x9fc01460        0x0
 *(.vector_19)
                0x00000001                ASSERT (((_vector_spacing == 0x0) || (SIZEOF (.vector_19) <= (_vector_spacing << 0x5))), function at exception vector 19 too large)

.vector_20      0x9fc01480        0x0
 *(.vector_20)
                0x00000001                ASSERT (((_vector_spacing == 0x0) || (SIZEOF (.vector_20) <= (_vector_spacing << 0x5))), function at exception vector 20 too large)

.vector_21      0x9fc014a0        0x0
 *(.vector_21)
                0x00000001                ASSERT (((_vector_spacing == 0x0) || (SIZEOF (.vector_21) <= (_vector_spacing << 0x5))), function at exception vector 21 too large)

.vector_22      0x9fc014c0        0x0
 *(.vector_22)
                0x00000001                ASSERT (((_vector_spacing == 0x0) || (SIZEOF (.vector_22) <= (_vector_spacing << 0x5))), function at exception vector 22 too large)

.vector_23      0x9fc014e0        0x0
 *(.vector_23)
                0x00000001                ASSERT (((_vector_spacing == 0x0) || (SIZEOF (.vector_23) <= (_vector_spacing << 0x5))), function at exception vector 23 too large)

.vector_24      0x9fc01500        0x0
 *(.vector_24)
                0x00000001                ASSERT (((_vector_spacing == 0x0) || (SIZEOF (.vector_24) <= (_vector_spacing << 0x5))), function at exception vector 24 too large)

.vector_25      0x9fc01520        0x0
 *(.vector_25)
                0x00000001                ASSERT (((_vector_spacing == 0x0) || (SIZEOF (.vector_25) <= (_vector_spacing << 0x5))), function at exception vector 25 too large)

.vector_26      0x9fc01540        0x0
 *(.vector_26)
                0x00000001                ASSERT (((_vector_spacing == 0x0) || (SIZEOF (.vector_26) <= (_vector_spacing << 0x5))), function at exception vector 26 too large)

.vector_27      0x9fc01560        0x0
 *(.vector_27)
                0x00000001                ASSERT (((_vector_spacing == 0x0) || (SIZEOF (.vector_27) <= (_vector_spacing << 0x5))), function at exception vector 27 too large)

.vector_28      0x9fc01580        0x0
 *(.vector_28)
                0x00000001                ASSERT (((_vector_spacing == 0x0) || (SIZEOF (.vector_28) <= (_vector_spacing << 0x5))), function at exception vector 28 too large)

.vector_29      0x9fc015a0        0x0
 *(.vector_29)
                0x00000001                ASSERT (((_vector_spacing == 0x0) || (SIZEOF (.vector_29) <= (_vector_spacing << 0x5))), function at exception vector 29 too large)

.vector_30      0x9fc015c0        0x0
 *(.vector_30)
                0x00000001                ASSERT (((_vector_spacing == 0x0) || (SIZEOF (.vector_30) <= (_vector_spacing << 0x5))), function at exception vector 30 too large)

.vector_31      0x9fc015e0        0x0
 *(.vector_31)
                0x00000001                ASSERT (((_vector_spacing == 0x0) || (SIZEOF (.vector_31) <= (_vector_spacing << 0x5))), function at exception vector 31 too large)

.vector_32      0x9fc01600        0x0
 *(.vector_32)
                0x00000001                ASSERT (((_vector_spacing == 0x0) || (SIZEOF (.vector_32) <= (_vector_spacing << 0x5))), function at exception vector 32 too large)

.vector_33      0x9fc01620        0x0
 *(.vector_33)
                0x00000001                ASSERT (((_vector_spacing == 0x0) || (SIZEOF (.vector_33) <= (_vector_spacing << 0x5))), function at exception vector 33 too large)

.vector_34      0x9fc01640        0x0
 *(.vector_34)
                0x00000001                ASSERT (((_vector_spacing == 0x0) || (SIZEOF (.vector_34) <= (_vector_spacing << 0x5))), function at exception vector 34 too large)

.vector_35      0x9fc01660        0x0
 *(.vector_35)
                0x00000001                ASSERT (((_vector_spacing == 0x0) || (SIZEOF (.vector_35) <= (_vector_spacing << 0x5))), function at exception vector 35 too large)

.vector_36      0x9fc01680        0x0
 *(.vector_36)
                0x00000001                ASSERT (((_vector_spacing == 0x0) || (SIZEOF (.vector_36) <= (_vector_spacing << 0x5))), function at exception vector 36 too large)

.vector_37      0x9fc016a0        0x0
 *(.vector_37)
                0x00000001                ASSERT (((_vector_spacing == 0x0) || (SIZEOF (.vector_37) <= (_vector_spacing << 0x5))), function at exception vector 37 too large)

.vector_38      0x9fc016c0        0x0
 *(.vector_38)
                0x00000001                ASSERT (((_vector_spacing == 0x0) || (SIZEOF (.vector_38) <= (_vector_spacing << 0x5))), function at exception vector 38 too large)

.vector_39      0x9fc016e0        0x0
 *(.vector_39)
                0x00000001                ASSERT (((_vector_spacing == 0x0) || (SIZEOF (.vector_39) <= (_vector_spacing << 0x5))), function at exception vector 39 too large)

.vector_40      0x9fc01700        0x0
 *(.vector_40)
                0x00000001                ASSERT (((_vector_spacing == 0x0) || (SIZEOF (.vector_40) <= (_vector_spacing << 0x5))), function at exception vector 40 too large)

.vector_41      0x9fc01720        0x0
 *(.vector_41)
                0x00000001                ASSERT (((_vector_spacing == 0x0) || (SIZEOF (.vector_41) <= (_vector_spacing << 0x5))), function at exception vector 41 too large)

.vector_42      0x9fc01740        0x0
 *(.vector_42)
                0x00000001                ASSERT (((_vector_spacing == 0x0) || (SIZEOF (.vector_42) <= (_vector_spacing << 0x5))), function at exception vector 42 too large)

.vector_43      0x9fc01760        0x0
 *(.vector_43)
                0x00000001                ASSERT (((_vector_spacing == 0x0) || (SIZEOF (.vector_43) <= (_vector_spacing << 0x5))), function at exception vector 43 too large)

.vector_44      0x9fc01780        0x0
 *(.vector_44)
                0x00000001                ASSERT (((_vector_spacing == 0x0) || (SIZEOF (.vector_44) <= (_vector_spacing << 0x5))), function at exception vector 44 too large)

.vector_45      0x9fc017a0        0x0
 *(.vector_45)
                0x00000001                ASSERT (((_vector_spacing == 0x0) || (SIZEOF (.vector_45) <= (_vector_spacing << 0x5))), function at exception vector 45 too large)

.vector_46      0x9fc017c0        0x0
 *(.vector_46)
                0x00000001                ASSERT (((_vector_spacing == 0x0) || (SIZEOF (.vector_46) <= (_vector_spacing << 0x5))), function at exception vector 46 too large)

.vector_47      0x9fc017e0        0x0
 *(.vector_47)
                0x00000001                ASSERT (((_vector_spacing == 0x0) || (SIZEOF (.vector_47) <= (_vector_spacing << 0x5))), function at exception vector 47 too large)

.vector_48      0x9fc01800        0x0
 *(.vector_48)
                0x00000001                ASSERT (((_vector_spacing == 0x0) || (SIZEOF (.vector_48) <= (_vector_spacing << 0x5))), function at exception vector 48 too large)

.vector_49      0x9fc01820        0x0
 *(.vector_49)
                0x00000001                ASSERT (((_vector_spacing == 0x0) || (SIZEOF (.vector_49) <= (_vector_spacing << 0x5))), function at exception vector 49 too large)

.vector_50      0x9fc01840        0x0
 *(.vector_50)
                0x00000001                ASSERT (((_vector_spacing == 0x0) || (SIZEOF (.vector_50) <= (_vector_spacing << 0x5))), function at exception vector 50 too large)

.vector_51      0x9fc01860        0x0
 *(.vector_51)
                0x00000001                ASSERT (((_vector_spacing == 0x0) || (SIZEOF (.vector_51) <= (_vector_spacing << 0x5))), function at exception vector 51 too large)

.vector_52      0x9fc01880        0x0
 *(.vector_52)
                0x00000001                ASSERT (((_vector_spacing == 0x0) || (SIZEOF (.vector_52) <= (_vector_spacing << 0x5))), function at exception vector 52 too large)

.vector_53      0x9fc018a0        0x0
 *(.vector_53)
                0x00000001                ASSERT (((_vector_spacing == 0x0) || (SIZEOF (.vector_53) <= (_vector_spacing << 0x5))), function at exception vector 53 too large)

.vector_54      0x9fc018c0        0x0
 *(.vector_54)
                0x00000001                ASSERT (((_vector_spacing == 0x0) || (SIZEOF (.vector_54) <= (_vector_spacing << 0x5))), function at exception vector 54 too large)

.vector_55      0x9fc018e0        0x0
 *(.vector_55)
                0x00000001                ASSERT (((_vector_spacing == 0x0) || (SIZEOF (.vector_55) <= (_vector_spacing << 0x5))), function at exception vector 55 too large)

.vector_56      0x9fc01900        0x0
 *(.vector_56)
                0x00000001                ASSERT (((_vector_spacing == 0x0) || (SIZEOF (.vector_56) <= (_vector_spacing << 0x5))), function at exception vector 56 too large)

.vector_57      0x9fc01920        0x0
 *(.vector_57)
                0x00000001                ASSERT (((_vector_spacing == 0x0) || (SIZEOF (.vector_57) <= (_vector_spacing << 0x5))), function at exception vector 57 too large)

.vector_58      0x9fc01940        0x0
 *(.vector_58)
                0x00000001                ASSERT (((_vector_spacing == 0x0) || (SIZEOF (.vector_58) <= (_vector_spacing << 0x5))), function at exception vector 58 too large)

.vector_59      0x9fc01960        0x0
 *(.vector_59)
                0x00000001                ASSERT (((_vector_spacing == 0x0) || (SIZEOF (.vector_59) <= (_vector_spacing << 0x5))), function at exception vector 59 too large)

.vector_60      0x9fc01980        0x0
 *(.vector_60)
                0x00000001                ASSERT (((_vector_spacing == 0x0) || (SIZEOF (.vector_60) <= (_vector_spacing << 0x5))), function at exception vector 60 too large)

.vector_61      0x9fc019a0        0x0
 *(.vector_61)
                0x00000001                ASSERT (((_vector_spacing == 0x0) || (SIZEOF (.vector_61) <= (_vector_spacing << 0x5))), function at exception vector 61 too large)

.vector_62      0x9fc019c0        0x0
 *(.vector_62)
                0x00000001                ASSERT (((_vector_spacing == 0x0) || (SIZEOF (.vector_62) <= (_vector_spacing << 0x5))), function at exception vector 62 too large)

.vector_63      0x9fc019e0        0x0
 *(.vector_63)
                0x00000001                ASSERT (((_vector_spacing == 0x0) || (SIZEOF (.vector_63) <= (_vector_spacing << 0x5))), function at exception vector 63 too large)

.startup        0x9fc00490      0x1e0
 *(.startup)
 .startup       0x9fc00490      0x1e0 C:/Program Files (x86)/Microchip/MPLAB C32 Suite/bin/../lib/gcc/pic32mx/3.4.4/../../../../pic32mx/lib/size/crt0.o

.text           0x9d000000    0x23888
                0x9d000000                _text_begin = .
 *(.text .stub .text.* .gnu.linkonce.t.*)
 .text          0x9d000000       0x10 C:/Program Files (x86)/Microchip/MPLAB C32 Suite/bin/../lib/gcc/pic32mx/3.4.4/../../../../pic32mx/lib/size/crt0.o
                0x9d000008                __crt0_exit
 .text          0x9d000010      0x3a4 Objects - TCPIP Demo App - C32 - PIC32_ENET_SK_DM320004_INTERNAL_ETHERNET\Announce.o
                0x9d000010                AnnounceIP
                0x9d000170                DiscoveryTask
 .text          0x9d0003b4      0x5f4 Objects - TCPIP Demo App - C32 - PIC32_ENET_SK_DM320004_INTERNAL_ETHERNET\ARP.o
                0x9d0004c0                ARPInit
                0x9d000550                ARPProcess
                0x9d000740                ARPResolve
                0x9d000820                ARPIsResolved
                0x9d000920                SwapARPPacket
 .text          0x9d0009a8     0x1ae8 Objects - TCPIP Demo App - C32 - PIC32_ENET_SK_DM320004_INTERNAL_ETHERNET\BerkeleyAPI.o
                0x9d0009a8                BerkeleySocketInit
                0x9d000a1c                socket
                0x9d000b60                bind
                0x9d000cf4                listen
                0x9d000fd0                accept
                0x9d0012f4                connect
                0x9d001664                send
                0x9d0016c4                sendto
                0x9d001aa4                recv
                0x9d001c34                recvfrom
                0x9d001ed8                gethostname
                0x9d001fdc                closesocket
 .text          0x9d002490       0xec Objects - TCPIP Demo App - C32 - PIC32_ENET_SK_DM320004_INTERNAL_ETHERNET\Delay.o
                0x9d002490                DelayMs
                0x9d002514                Delay10us
 .text          0x9d00257c      0xe60 Objects - TCPIP Demo App - C32 - PIC32_ENET_SK_DM320004_INTERNAL_ETHERNET\DNS.o
                0x9d00257c                DNSBeginUsage
                0x9d0025d4                DNSEndUsage
                0x9d002648                DNSResolve
                0x9d0026dc                DNSIsResolved
 .text          0x9d0033dc     0x1788 Objects - TCPIP Demo App - C32 - PIC32_ENET_SK_DM320004_INTERNAL_ETHERNET\DynDNS.o
                0x9d0033dc                DDNSInit
                0x9d00347c                DDNSTask
                0x9d004a4c                DDNSForceUpdate
                0x9d004a90                DDNSSetService
                0x9d004b10                DDNSGetLastIP
                0x9d004b40                DDNSGetLastStatus
 .text          0x9d004b64     0x13f4 Objects - TCPIP Demo App - C32 - PIC32_ENET_SK_DM320004_INTERNAL_ETHERNET\ETHPIC32ExtPhy.o
                0x9d004b64                EthPhyRestartNegotiation
                0x9d004bfc                EthPhyGetHwConfigFlags
                0x9d004c70                EthPhyInit
                0x9d005170                EthPhyNegotiationComplete
                0x9d005418                EthPhyGetNegotiationResult
                0x9d005774                EthPhyGetLinkStatus
                0x9d005864                EthPhyReset
                0x9d005994                EthPhyScanLinkStart
                0x9d0059cc                EthPhyScanLinkRead
                0x9d005a40                EthPhyScanLinkStop
 .text          0x9d005f58      0x1c4 Objects - TCPIP Demo App - C32 - PIC32_ENET_SK_DM320004_INTERNAL_ETHERNET\ETHPIC32ExtPhyDP83848.o
                0x9d005f58                EthPhyConfigureMII
                0x9d006000                EthPhyConfigureMdix
                0x9d0060d0                EthPhyMIIMAddress
                0x9d0060f4                EthPhyMIIMClock
 .text          0x9d00611c      0xf00 Objects - TCPIP Demo App - C32 - PIC32_ENET_SK_DM320004_INTERNAL_ETHERNET\ETHPIC32IntMac.o
                0x9d00611c                MACInit
                0x9d0064fc                MACIsLinked
                0x9d006524                MACGetTxBaseAddr
                0x9d00656c                MACGetHttpBaseAddr
                0x9d006594                MACGetSslBaseAddr
                0x9d0065bc                MACSetWritePtr
                0x9d0065f4                MACIsTxReady
                0x9d006768                MACPut
                0x9d0067ac                MACPutArray
                0x9d006808                MACPutHeader
                0x9d0068fc                MACFlush
                0x9d00696c                MACDiscardRx
                0x9d0069c8                MACGetHeader
                0x9d006be0                MACSetReadPtrInRx
                0x9d006c1c                MACSetReadPtr
                0x9d006c54                MACGet
                0x9d006c90                MACGetArray
                0x9d006cfc                MACGetFreeRxSize
                0x9d006d54                MACMemCopyAsync
                0x9d006e10                MACIsMemCopyDone
                0x9d006e34                CalcIPBufferChecksum
                0x9d006e78                MACCalcRxChecksum
 .text          0x9d00701c      0x76c Objects - TCPIP Demo App - C32 - PIC32_ENET_SK_DM320004_INTERNAL_ETHERNET\Hashes.o
                0x9d00701c                HashAddData
                0x9d00707c                MD5Initialize
                0x9d0070f0                MD5AddData
                0x9d0074ac                MD5Calculate
 .text          0x9d007788     0x14f0 Objects - TCPIP Demo App - C32 - PIC32_ENET_SK_DM320004_INTERNAL_ETHERNET\Helpers.o
                0x9d007788                LFSRSeedRand
                0x9d00780c                LFSRRand
                0x9d007884                GenerateRandomDWORD
                0x9d007ac4                StringToIPAddress
                0x9d007dc4                Base64Decode
                0x9d0080cc                Base64Encode
                0x9d00835c                uitoa
                0x9d008480                ultoa_leg
                0x9d0085a4                hexatob
                0x9d008678                btohexa_high
                0x9d0086e8                btohexa_low
                0x9d008758                stricmppgm2ram
                0x9d0088d8                swaps
                0x9d008924                swapl
                0x9d0089ac                CalcIPChecksum
                0x9d008a88                strupr
                0x9d008b18                FormatNetBIOSName
                0x9d008bd0                strnchr
 .text          0x9d008c78     0x370c Objects - TCPIP Demo App - C32 - PIC32_ENET_SK_DM320004_INTERNAL_ETHERNET\HTTP2.o
                0x9d008c78                HTTPPrint
                0x9d009148                HTTPPrint_
                0x9d009198                HTTPInit
                0x9d0092a8                HTTPServer
                0x9d00ba38                HTTPURLDecode
                0x9d00bc0c                HTTPGetArg
                0x9d00bcd8                HTTPReadPostName
                0x9d00bd54                HTTPReadPostValue
                0x9d00c184                HTTPIncFile
 .text          0x9d00c384      0x604 Objects - TCPIP Demo App - C32 - PIC32_ENET_SK_DM320004_INTERNAL_ETHERNET\ICMP.o
                0x9d00c384                ICMPProcess
                0x9d00c578                ICMPSendPing
                0x9d00c5d4                ICMPSendPingToHost
                0x9d00c640                ICMPGetReply
                0x9d00c900                ICMPBeginUsage
                0x9d00c958                ICMPEndUsage
 .text          0x9d00c988      0x31c Objects - TCPIP Demo App - C32 - PIC32_ENET_SK_DM320004_INTERNAL_ETHERNET\IP.o
                0x9d00c988                IPGetHeader
                0x9d00cac4                IPPutHeader
                0x9d00cbd0                IPSetRxBuffer
 .text          0x9d00cca4     0x1818 Objects - TCPIP Demo App - C32 - PIC32_ENET_SK_DM320004_INTERNAL_ETHERNET\MPFS2.o
                0x9d00cca4                MPFSInit
                0x9d00cd2c                MPFSOpen
                0x9d00d064                MPFSOpenID
                0x9d00d1f8                MPFSClose
                0x9d00d264                MPFSGet
                0x9d00d4b0                MPFSGetArray
                0x9d00d764                MPFSGetLong
                0x9d00d7b8                MPFSSeek
                0x9d00dcb8                MPFSGetTimestamp
                0x9d00dd84                MPFSGetMicrotime
                0x9d00de50                MPFSGetFlags
                0x9d00df1c                MPFSGetSize
                0x9d00dfe8                MPFSGetBytesRem
                0x9d00e094                MPFSGetStartAddr
                0x9d00e164                MPFSGetEndAddr
                0x9d00e248                MPFSGetFilename
                0x9d00e358                MPFSGetPosition
                0x9d00e3cc                MPFSGetID
 .text          0x9d00e4bc      0x6fc Objects - TCPIP Demo App - C32 - PIC32_ENET_SK_DM320004_INTERNAL_ETHERNET\NBNS.o
                0x9d00e4bc                NBNSTask
 .text          0x9d00ebb8      0x158 Objects - TCPIP Demo App - C32 - PIC32_ENET_SK_DM320004_INTERNAL_ETHERNET\Reboot.o
                0x9d00ebb8                RebootTask
 .text          0x9d00ed10     0x25c8 Objects - TCPIP Demo App - C32 - PIC32_ENET_SK_DM320004_INTERNAL_ETHERNET\SMTP.o
                0x9d00ed10                SMTPBeginUsage
                0x9d00edac                SMTPEndUsage
                0x9d00ee78                SMTPTask
                0x9d010ba4                SMTPSendMail
                0x9d010bd0                SMTPIsBusy
                0x9d010bf8                SMTPIsPutReady
                0x9d010c54                SMTPPut
                0x9d010df8                SMTPPutArray
                0x9d010e98                SMTPPutString
                0x9d010f24                SMTPFlush
                0x9d010f5c                SMTPPutDone
 .text          0x9d0112d8      0x4c0 Objects - TCPIP Demo App - C32 - PIC32_ENET_SK_DM320004_INTERNAL_ETHERNET\SNTP.o
                0x9d0112d8                SNTPClient
                0x9d011700                SNTPGetUTCSeconds
 .text          0x9d011798      0x2e0 Objects - TCPIP Demo App - C32 - PIC32_ENET_SK_DM320004_INTERNAL_ETHERNET\StackTsk.o
                0x9d011798                StackInit
                0x9d011810                StackTask
                0x9d011a08                StackApplications
 .text          0x9d011a78     0x8644 Objects - TCPIP Demo App - C32 - PIC32_ENET_SK_DM320004_INTERNAL_ETHERNET\TCP.o
                0x9d011bac                TCPInit
                0x9d011eb8                TCPOpen
                0x9d01232c                TCPWasReset
                0x9d0123d8                TCPIsConnected
                0x9d012434                TCPDisconnect
                0x9d0126b8                TCPClose
                0x9d012730                TCPGetRemoteInfo
                0x9d0127ac                TCPFlush
                0x9d012834                TCPIsPutReady
                0x9d012a28                TCPPut
                0x9d012d7c                TCPPutArray
                0x9d013200                TCPPutString
                0x9d013264                TCPGetTxFIFOFull
                0x9d013318                TCPDiscard
                0x9d0133c0                TCPIsGetReady
                0x9d01355c                TCPGet
                0x9d0137e4                TCPGetArray
                0x9d013bc4                TCPGetRxFIFOFree
                0x9d013c74                TCPPeekArray
                0x9d013f38                TCPPeek
                0x9d013f94                TCPFindArrayEx
                0x9d0145b0                TCPFindEx
                0x9d014624                TCPTick
                0x9d015690                TCPProcess
                0x9d019790                TCPAdjustFIFOSize
 .text          0x9d01a0bc      0x5b0 Objects - TCPIP Demo App - C32 - PIC32_ENET_SK_DM320004_INTERNAL_ETHERNET\TCPPerformanceTest.o
                0x9d01a0bc                TCPPerformanceTask
                0x9d01a0f4                TCPTXPerformanceTask
                0x9d01a438                TCPRXPerformanceTask
 .text          0x9d01a66c      0xbe4 Objects - TCPIP Demo App - C32 - PIC32_ENET_SK_DM320004_INTERNAL_ETHERNET\Telnet.o
                0x9d01a66c                TelnetTask
 .text          0x9d01b250      0x2d8 Objects - TCPIP Demo App - C32 - PIC32_ENET_SK_DM320004_INTERNAL_ETHERNET\Tick.o
                0x9d01b250                TickInit
                0x9d01b36c                TickGet
                0x9d01b3a0                TickGetDiv256
                0x9d01b3f4                TickGetDiv64K
                0x9d01b448                TickConvertToMilliseconds
                0x9d01b4a0                _T1Interrupt
 .text          0x9d01b528      0xcb4 Objects - TCPIP Demo App - C32 - PIC32_ENET_SK_DM320004_INTERNAL_ETHERNET\UDP.o
                0x9d01b528                UDPInit
                0x9d01b594                UDPTask
                0x9d01b5bc                UDPOpen
                0x9d01b710                UDPClose
                0x9d01b79c                UDPSetTxBuffer
                0x9d01b7fc                UDPSetRxBuffer
                0x9d01b84c                UDPIsPutReady
                0x9d01b8e0                UDPPut
                0x9d01b970                UDPPutArray
                0x9d01ba14                UDPPutString
                0x9d01ba68                UDPFlush
                0x9d01bc48                UDPIsGetReady
                0x9d01bce4                UDPGet
                0x9d01bd74                UDPGetArray
                0x9d01be40                UDPDiscard
                0x9d01be9c                UDPProcess
 .text          0x9d01c1dc     0x36e8 Objects - TCPIP Demo App - C32 - PIC32_ENET_SK_DM320004_INTERNAL_ETHERNET\CustomHTTPApp.o
                0x9d01c1dc                HTTPNeedsAuth
                0x9d01c26c                HTTPCheckAuth
                0x9d01c2ec                HTTPExecuteGet
                0x9d01c654                HTTPExecutePost
                0x9d01e1cc                HTTPPrint_builddate
                0x9d01e274                HTTPPrint_version
                0x9d01e2c8                HTTPPrint_btn
                0x9d01e410                HTTPPrint_led
                0x9d01e58c                HTTPPrint_ledSelected
                0x9d01e71c                HTTPPrint_pot
                0x9d01e78c                HTTPPrint_lcdtext
                0x9d01e808                HTTPPrint_hellomsg
                0x9d01e8ac                HTTPPrint_cookiename
                0x9d01e958                HTTPPrint_uploadedmd5
                0x9d01eb4c                HTTPPrintIP
                0x9d01ec1c                HTTPPrint_config_hostname
                0x9d01ec70                HTTPPrint_config_dhcpchecked
                0x9d01ece0                HTTPPrint_config_ip
                0x9d01ed28                HTTPPrint_config_gw
                0x9d01ed70                HTTPPrint_config_subnet
                0x9d01edb8                HTTPPrint_config_dns1
                0x9d01ee00                HTTPPrint_config_dns2
                0x9d01ee48                HTTPPrint_config_mac
                0x9d01efb0                HTTPPrint_read_comm
                0x9d01efd8                HTTPPrint_write_comm
                0x9d01f000                HTTPPrint_reboot
                0x9d01f018                HTTPPrint_rebootaddr
                0x9d01f06c                HTTPPrint_ddns_user
                0x9d01f15c                HTTPPrint_ddns_pass
                0x9d01f24c                HTTPPrint_ddns_host
                0x9d01f33c                HTTPPrint_ddns_service
                0x9d01f3f8                HTTPPrint_ddns_status
                0x9d01f504                HTTPPrint_ddns_status_msg
                0x9d01f6ec                HTTPPrint_smtps_en
                0x9d01f740                HTTPPrint_snmp_en
                0x9d01f794                HTTPPrint_status_ok
                0x9d01f82c                HTTPPrint_status_fail
 .text          0x9d01f8c4      0x91c Objects - TCPIP Demo App - C32 - PIC32_ENET_SK_DM320004_INTERNAL_ETHERNET\MainDemo.o
                0x9d01f8c4                _general_exception_handler
                0x9d01f8f0                main
                0x9d01fa38                DisplayIPValue
 .text          0x9d0201e0      0x240 Objects - TCPIP Demo App - C32 - PIC32_ENET_SK_DM320004_INTERNAL_ETHERNET\BerkeleyTCPClientDemo.o
                0x9d0201e0                BerkeleyTCPClientDemo
 .text          0x9d020420      0x2ac Objects - TCPIP Demo App - C32 - PIC32_ENET_SK_DM320004_INTERNAL_ETHERNET\BerkeleyTCPServerDemo.o
                0x9d020420                BerkeleyTCPServerDemo
 .text          0x9d0206cc      0x420 Objects - TCPIP Demo App - C32 - PIC32_ENET_SK_DM320004_INTERNAL_ETHERNET\BerkeleyUDPClientDemo.o
                0x9d0206cc                BerkeleyUDPClientDemo
                0x9d020a54                BerkeleySNTPGetUTCSeconds
 .text          0x9d020aec      0x300 Objects - TCPIP Demo App - C32 - PIC32_ENET_SK_DM320004_INTERNAL_ETHERNET\GenericTCPClient.o
                0x9d020aec                GenericTCPClient
 .text          0x9d020dec      0x258 Objects - TCPIP Demo App - C32 - PIC32_ENET_SK_DM320004_INTERNAL_ETHERNET\GenericTCPServer.o
                0x9d020dec                GenericTCPServer
 .text          0x9d021044      0x140 Objects - TCPIP Demo App - C32 - PIC32_ENET_SK_DM320004_INTERNAL_ETHERNET\PingDemo.o
                0x9d021044                PingDemo
 .text          0x9d021184      0x260 Objects - TCPIP Demo App - C32 - PIC32_ENET_SK_DM320004_INTERNAL_ETHERNET\SMTPDemo.o
                0x9d021184                SMTPDemo
 .text.__udivdi3
                0x9d0213e4      0x44c C:/Program Files (x86)/Microchip/MPLAB C32 Suite/bin/../lib/gcc/pic32mx/3.4.4/size\libgcc.a(_udivdi3.o)
                0x9d0213e4                __udivdi3
 .text          0x9d021830       0x98 C:/Program Files (x86)/Microchip/MPLAB C32 Suite/bin/../lib/gcc/pic32mx/3.4.4/../../../../pic32mx/lib/size\libc.a(memcmp.o)
                0x9d021830                memcmp
 .text          0x9d0218c8      0x168 C:/Program Files (x86)/Microchip/MPLAB C32 Suite/bin/../lib/gcc/pic32mx/3.4.4/../../../../pic32mx/lib/size\libc.a(memcpy.o)
                0x9d0218c8                memcpy
 .text          0x9d021a30       0xa8 C:/Program Files (x86)/Microchip/MPLAB C32 Suite/bin/../lib/gcc/pic32mx/3.4.4/../../../../pic32mx/lib/size\libc.a(memset.o)
                0x9d021a30                memset
 .text          0x9d021ad8      0x120 C:/Program Files (x86)/Microchip/MPLAB C32 Suite/bin/../lib/gcc/pic32mx/3.4.4/../../../../pic32mx/lib/size\libc.a(strcmp.o)
                0x9d021ad8                strcmp
 .text          0x9d021bf8      0x1a0 C:/Program Files (x86)/Microchip/MPLAB C32 Suite/bin/../lib/gcc/pic32mx/3.4.4/../../../../pic32mx/lib/size\libc.a(strcpy.o)
                0x9d021bf8                strcpy
 .text          0x9d021d98      0x168 C:/Program Files (x86)/Microchip/MPLAB C32 Suite/bin/../lib/gcc/pic32mx/3.4.4/../../../../pic32mx/lib/size\libc.a(strlen.o)
                0x9d021d98                strlen
 .text.general_exception
                0x9d021f00       0xd0 C:/Program Files (x86)/Microchip/MPLAB C32 Suite/bin/../lib/gcc/pic32mx/3.4.4/../../../../pic32mx/lib/size\libc.a(general-exception.o)
                0x9d021f00                _general_exception_context
 .text.atoi     0x9d021fd0       0xa4 C:/Program Files (x86)/Microchip/MPLAB C32 Suite/bin/../lib/gcc/pic32mx/3.4.4/../../../../pic32mx/lib/size\libc.a(atoi.o)
                0x9d021fd0                atoi
 .text.atol     0x9d022074       0xa8 C:/Program Files (x86)/Microchip/MPLAB C32 Suite/bin/../lib/gcc/pic32mx/3.4.4/../../../../pic32mx/lib/size\libc.a(atol.o)
                0x9d022074                atol
 .text.calloc   0x9d02211c       0x58 C:/Program Files (x86)/Microchip/MPLAB C32 Suite/bin/../lib/gcc/pic32mx/3.4.4/../../../../pic32mx/lib/size\libc.a(calloc.o)
                0x9d02211c                calloc
 .text.malloc   0x9d022174      0x234 C:/Program Files (x86)/Microchip/MPLAB C32 Suite/bin/../lib/gcc/pic32mx/3.4.4/../../../../pic32mx/lib/size\libc.a(malloc.o)
                0x9d022174                malloc
 .text.strchr   0x9d0223a8       0x28 C:/Program Files (x86)/Microchip/MPLAB C32 Suite/bin/../lib/gcc/pic32mx/3.4.4/../../../../pic32mx/lib/size\libc.a(strchr.o)
                0x9d0223a8                strchr
 .text.strstr   0x9d0223d0       0x80 C:/Program Files (x86)/Microchip/MPLAB C32 Suite/bin/../lib/gcc/pic32mx/3.4.4/../../../../pic32mx/lib/size\libc.a(strstr.o)
                0x9d0223d0                strstr
 .text._stub_sbd_memlayout
                0x9d022450       0x2c C:/Program Files (x86)/Microchip/MPLAB C32 Suite/bin/../lib/gcc/pic32mx/3.4.4/../../../../pic32mx/lib/size\libc.a(sbrk.o)
                0x9d022450                _stub_sbd_memlayout
                0x9d022450                _sbd_memlayout
 .text._sbrk_init
                0x9d02247c      0x148 C:/Program Files (x86)/Microchip/MPLAB C32 Suite/bin/../lib/gcc/pic32mx/3.4.4/../../../../pic32mx/lib/size\libc.a(sbrk.o)
                0x9d02247c                _sbrk_init
 .text._sbrk    0x9d0225c4       0xa4 C:/Program Files (x86)/Microchip/MPLAB C32 Suite/bin/../lib/gcc/pic32mx/3.4.4/../../../../pic32mx/lib/size\libc.a(sbrk.o)
                0x9d0225c4                _sbrk
 .text.sbrk     0x9d022668       0x5c C:/Program Files (x86)/Microchip/MPLAB C32 Suite/bin/../lib/gcc/pic32mx/3.4.4/../../../../pic32mx/lib/size\libc.a(sbrk.o)
                0x9d022668                sbrk
 .text._bootstrap_exception_handler
                0x9d0226c4        0x8 C:/Program Files (x86)/Microchip/MPLAB C32 Suite/bin/../lib/gcc/pic32mx/3.4.4/../../../../pic32mx/lib/size\libc.a(default-bootstrap-exception-handler.o)
                0x9d0226c4                _bootstrap_exception_handler
 .text._on_reset
                0x9d0226cc        0x8 C:/Program Files (x86)/Microchip/MPLAB C32 Suite/bin/../lib/gcc/pic32mx/3.4.4/../../../../pic32mx/lib/size\libc.a(default-on-reset.o)
                0x9d0226cc                _on_reset
 .text._on_bootstrap
                0x9d0226d4        0x8 C:/Program Files (x86)/Microchip/MPLAB C32 Suite/bin/../lib/gcc/pic32mx/3.4.4/../../../../pic32mx/lib/size\libc.a(default-on-bootstrap.o)
                0x9d0226d4                _on_bootstrap
 .text          0x9d0226dc       0x18 C:/Program Files (x86)/Microchip/MPLAB C32 Suite/bin/../lib/gcc/pic32mx/3.4.4/../../../../pic32mx/lib/size\libc.a(default-nmi-handler.o)
                0x9d0226dc                _nmi_handler
 .text.strncmp  0x9d0226f4       0x4c C:/Program Files (x86)/Microchip/MPLAB C32 Suite/bin/../lib/gcc/pic32mx/3.4.4/../../../../pic32mx/lib/size\libc.a(strncmp.o)
                0x9d0226f4                strncmp
 .text.ReadCoreTimer
                0x9d022740        0x8 C:/Program Files (x86)/Microchip/MPLAB C32 Suite/bin/../lib/gcc/pic32mx/3.4.4/../../../../pic32mx/lib/size\libmchp_peripheral.a(read_core_timer_lib.o)
                0x9d022740                ReadCoreTimer
 .text._EthAckPacket
                0x9d022748      0x1ac C:/Program Files (x86)/Microchip/MPLAB C32 Suite/bin/../lib/gcc/pic32mx/3.4.4/../../../../pic32mx/lib/size\libmchp_peripheral_32MX795F512L.a(eth_ack_packet_lib.o)
                0x9d022748                _EthAckPacket
 .text.EthTxAcknowledgeBuffer
                0x9d0228f4       0x30 C:/Program Files (x86)/Microchip/MPLAB C32 Suite/bin/../lib/gcc/pic32mx/3.4.4/../../../../pic32mx/lib/size\libmchp_peripheral_32MX795F512L.a(eth_ack_packet_lib.o)
                0x9d0228f4                EthTxAcknowledgeBuffer
 .text._EthRxAckBuffer
                0x9d022924      0x180 C:/Program Files (x86)/Microchip/MPLAB C32 Suite/bin/../lib/gcc/pic32mx/3.4.4/../../../../pic32mx/lib/size\libmchp_peripheral_32MX795F512L.a(eth_ack_packet_lib.o)
 .text.EthRxAcknowledgeBuffer
                0x9d022aa4       0x1c C:/Program Files (x86)/Microchip/MPLAB C32 Suite/bin/../lib/gcc/pic32mx/3.4.4/../../../../pic32mx/lib/size\libmchp_peripheral_32MX795F512L.a(eth_ack_packet_lib.o)
                0x9d022aa4                EthRxAcknowledgeBuffer
 .text.EthDescriptorsPoolAdd
                0x9d022ac0      0x158 C:/Program Files (x86)/Microchip/MPLAB C32 Suite/bin/../lib/gcc/pic32mx/3.4.4/../../../../pic32mx/lib/size\libmchp_peripheral_32MX795F512L.a(eth_descriptors_add_lib.o)
                0x9d022ac0                EthDescriptorsPoolAdd
 .text.EthInit  0x9d022c18       0xb0 C:/Program Files (x86)/Microchip/MPLAB C32 Suite/bin/../lib/gcc/pic32mx/3.4.4/../../../../pic32mx/lib/size\libmchp_peripheral_32MX795F512L.a(eth_init_lib.o)
                0x9d022c18                EthInit
 .text.EthMACOpen
                0x9d022cc8       0xb4 C:/Program Files (x86)/Microchip/MPLAB C32 Suite/bin/../lib/gcc/pic32mx/3.4.4/../../../../pic32mx/lib/size\libmchp_peripheral_32MX795F512L.a(eth_mac_open_lib.o)
                0x9d022cc8                EthMACOpen
 .text.EthMACSetAddress
                0x9d022d7c       0x4c C:/Program Files (x86)/Microchip/MPLAB C32 Suite/bin/../lib/gcc/pic32mx/3.4.4/../../../../pic32mx/lib/size\libmchp_peripheral_32MX795F512L.a(eth_mac_set_address_max_lib.o)
                0x9d022d7c                EthMACSetAddress
 .text.EthRxBuffersAppend
                0x9d022dc8      0x21c C:/Program Files (x86)/Microchip/MPLAB C32 Suite/bin/../lib/gcc/pic32mx/3.4.4/../../../../pic32mx/lib/size\libmchp_peripheral_32MX795F512L.a(eth_rx_buffers_append_lib.o)
                0x9d022dc8                EthRxBuffersAppend
 .text.EthRxFiltersSet
                0x9d022fe4       0x10 C:/Program Files (x86)/Microchip/MPLAB C32 Suite/bin/../lib/gcc/pic32mx/3.4.4/../../../../pic32mx/lib/size\libmchp_peripheral_32MX795F512L.a(eth_rx_filters_lib.o)
                0x9d022fe4                EthRxFiltersSet
 .text.EthRxFiltersClr
                0x9d022ff4       0x10 C:/Program Files (x86)/Microchip/MPLAB C32 Suite/bin/../lib/gcc/pic32mx/3.4.4/../../../../pic32mx/lib/size\libmchp_peripheral_32MX795F512L.a(eth_rx_filters_lib.o)
                0x9d022ff4                EthRxFiltersClr
 .text.EthRxGetPacket
                0x9d023004      0x178 C:/Program Files (x86)/Microchip/MPLAB C32 Suite/bin/../lib/gcc/pic32mx/3.4.4/../../../../pic32mx/lib/size\libmchp_peripheral_32MX795F512L.a(eth_rx_get_packet_lib.o)
                0x9d023004                EthRxGetPacket
 .text.EthRxGetBuffer
                0x9d02317c       0x3c C:/Program Files (x86)/Microchip/MPLAB C32 Suite/bin/../lib/gcc/pic32mx/3.4.4/../../../../pic32mx/lib/size\libmchp_peripheral_32MX795F512L.a(eth_rx_get_packet_lib.o)
                0x9d02317c                EthRxGetBuffer
 .text.EthRxSetBufferSize
                0x9d0231b8       0x30 C:/Program Files (x86)/Microchip/MPLAB C32 Suite/bin/../lib/gcc/pic32mx/3.4.4/../../../../pic32mx/lib/size\libmchp_peripheral_32MX795F512L.a(eth_rx_set_buffer_size_lib.o)
                0x9d0231b8                EthRxSetBufferSize
 .text._EthTxSchedBuffer
                0x9d0231e8       0xac C:/Program Files (x86)/Microchip/MPLAB C32 Suite/bin/../lib/gcc/pic32mx/3.4.4/../../../../pic32mx/lib/size\libmchp_peripheral_32MX795F512L.a(eth_tx_packet_lib.o)
 .text._EthTxSchedList
                0x9d023294       0x94 C:/Program Files (x86)/Microchip/MPLAB C32 Suite/bin/../lib/gcc/pic32mx/3.4.4/../../../../pic32mx/lib/size\libmchp_peripheral_32MX795F512L.a(eth_tx_packet_lib.o)
 .text.EthTxSendBuffer
                0x9d023328       0xc4 C:/Program Files (x86)/Microchip/MPLAB C32 Suite/bin/../lib/gcc/pic32mx/3.4.4/../../../../pic32mx/lib/size\libmchp_peripheral_32MX795F512L.a(eth_tx_packet_lib.o)
                0x9d023328                EthTxSendBuffer
 .text._EthAppendBusyList
                0x9d0233ec      0x178 C:/Program Files (x86)/Microchip/MPLAB C32 Suite/bin/../lib/gcc/pic32mx/3.4.4/../../../../pic32mx/lib/size\libmchp_peripheral_32MX795F512L.a(_eth_append_busy_list_lib.o)
                0x9d0233ec                _EthAppendBusyList
 .text.EthMIIMReadStart
                0x9d023564       0x40 C:/Program Files (x86)/Microchip/MPLAB C32 Suite/bin/../lib/gcc/pic32mx/3.4.4/../../../../pic32mx/lib/size\libmchp_peripheral_32MX795F512L.a(eth_miim_access.o)
                0x9d023564                EthMIIMReadStart
 .text.EthMIIMReadResult
                0x9d0235a4       0x28 C:/Program Files (x86)/Microchip/MPLAB C32 Suite/bin/../lib/gcc/pic32mx/3.4.4/../../../../pic32mx/lib/size\libmchp_peripheral_32MX795F512L.a(eth_miim_access.o)
                0x9d0235a4                EthMIIMReadResult
 .text.EthMIIMWriteStart
                0x9d0235cc       0x38 C:/Program Files (x86)/Microchip/MPLAB C32 Suite/bin/../lib/gcc/pic32mx/3.4.4/../../../../pic32mx/lib/size\libmchp_peripheral_32MX795F512L.a(eth_miim_access.o)
                0x9d0235cc                EthMIIMWriteStart
 .text.EthMIIMScanStart
                0x9d023604       0x34 C:/Program Files (x86)/Microchip/MPLAB C32 Suite/bin/../lib/gcc/pic32mx/3.4.4/../../../../pic32mx/lib/size\libmchp_peripheral_32MX795F512L.a(eth_miim_access.o)
                0x9d023604                EthMIIMScanStart
 .text.EthMIIMScanResult
                0x9d023638       0x20 C:/Program Files (x86)/Microchip/MPLAB C32 Suite/bin/../lib/gcc/pic32mx/3.4.4/../../../../pic32mx/lib/size\libmchp_peripheral_32MX795F512L.a(eth_miim_access.o)
                0x9d023638                EthMIIMScanResult
 .text.EthMIIMConfig
                0x9d023658       0x68 C:/Program Files (x86)/Microchip/MPLAB C32 Suite/bin/../lib/gcc/pic32mx/3.4.4/../../../../pic32mx/lib/size\libmchp_peripheral_32MX795F512L.a(eth_miim_access.o)
                0x9d023658                EthMIIMConfig
 .text.SoftReset
                0x9d0236c0       0x78 C:/Program Files (x86)/Microchip/MPLAB C32 Suite/bin/../lib/gcc/pic32mx/3.4.4/../../../../pic32mx/lib/size\libmchp_peripheral_32MX795F512L.a(soft_reset_lib.o)
                0x9d0236c0                SoftReset
 .text.CheKseg0CacheOn
                0x9d023738       0x18 C:/Program Files (x86)/Microchip/MPLAB C32 Suite/bin/../lib/gcc/pic32mx/3.4.4/../../../../pic32mx/lib/size\libmchp_peripheral_32MX795F512L.a(pcache.o)
                0x9d023738                CheKseg0CacheOn
 .text.INTDisableInterrupts
                0x9d023750        0x8 C:/Program Files (x86)/Microchip/MPLAB C32 Suite/bin/../lib/gcc/pic32mx/3.4.4/../../../../pic32mx/lib/size\libmchp_peripheral_32MX795F512L.a(int_disable_interrupts_lib.o)
                0x9d023750                INTDisableInterrupts
 .text.INTRestoreInterrupts
                0x9d023758       0x1c C:/Program Files (x86)/Microchip/MPLAB C32 Suite/bin/../lib/gcc/pic32mx/3.4.4/../../../../pic32mx/lib/size\libmchp_peripheral_32MX795F512L.a(int_restore_interrupts_lib.o)
                0x9d023758                INTRestoreInterrupts
 .text.INTEnableSystemMultiVectoredInt
                0x9d023774       0x34 C:/Program Files (x86)/Microchip/MPLAB C32 Suite/bin/../lib/gcc/pic32mx/3.4.4/../../../../pic32mx/lib/size\libmchp_peripheral_32MX795F512L.a(int_enable_mv_int_lib.o)
                0x9d023774                INTEnableSystemMultiVectoredInt
 .text.INTClearFlag
                0x9d0237a8       0x28 C:/Program Files (x86)/Microchip/MPLAB C32 Suite/bin/../lib/gcc/pic32mx/3.4.4/../../../../pic32mx/lib/size\libmchp_peripheral_32MX795F512L.a(int_tbl_lib.o)
                0x9d0237a8                INTClearFlag
 .text.INTEnable
                0x9d0237d0       0x38 C:/Program Files (x86)/Microchip/MPLAB C32 Suite/bin/../lib/gcc/pic32mx/3.4.4/../../../../pic32mx/lib/size\libmchp_peripheral_32MX795F512L.a(int_tbl_lib.o)
                0x9d0237d0                INTEnable
 .text.PORTSetPinsDigitalIn
                0x9d023808       0x3c C:/Program Files (x86)/Microchip/MPLAB C32 Suite/bin/../lib/gcc/pic32mx/3.4.4/../../../../pic32mx/lib/size\libmchp_peripheral_32MX795F512L.a(port_set_pins_digital_in_lib.o)
                0x9d023808                PORTSetPinsDigitalIn
 .text.PORTSetPinsDigitalOut
                0x9d023844       0x3c C:/Program Files (x86)/Microchip/MPLAB C32 Suite/bin/../lib/gcc/pic32mx/3.4.4/../../../../pic32mx/lib/size\libmchp_peripheral_32MX795F512L.a(port_set_pins_digital_out_lib.o)
                0x9d023844                PORTSetPinsDigitalOut
 .text.INTEnableInterrupts
                0x9d023880        0x8 C:/Program Files (x86)/Microchip/MPLAB C32 Suite/bin/../lib/gcc/pic32mx/3.4.4/../../../../pic32mx/lib/size\libmchp_peripheral_32MX795F512L.a(int_enable_interrupts_lib.o)
                0x9d023880                INTEnableInterrupts
 *(.text.*personality*)
 *(.gnu.warning)
 *(.mips16.fn.*)
 *(.mips16.call.*)
                0x9d023888                _text_end = .

.rodata         0x9d023888     0x9910
 *(.rodata .rodata.* .gnu.linkonce.r.*)
 .rodata        0x9d023888       0x1c Objects - TCPIP Demo App - C32 - PIC32_ENET_SK_DM320004_INTERNAL_ETHERNET\Announce.o
 .rodata        0x9d0238a4       0x20 Objects - TCPIP Demo App - C32 - PIC32_ENET_SK_DM320004_INTERNAL_ETHERNET\DNS.o
 .rodata        0x9d0238c4      0x228 Objects - TCPIP Demo App - C32 - PIC32_ENET_SK_DM320004_INTERNAL_ETHERNET\DynDNS.o
                0x9d02397c                ddnsServiceHosts
 .rodata        0x9d023aec        0x8 Objects - TCPIP Demo App - C32 - PIC32_ENET_SK_DM320004_INTERNAL_ETHERNET\ETHPIC32IntMac.o
 .rodata        0x9d023af4      0x140 Objects - TCPIP Demo App - C32 - PIC32_ENET_SK_DM320004_INTERNAL_ETHERNET\Hashes.o
 .rodata        0x9d023c34      0x6a0 Objects - TCPIP Demo App - C32 - PIC32_ENET_SK_DM320004_INTERNAL_ETHERNET\HTTP2.o
 .rodata        0x9d0242d4       0x1c Objects - TCPIP Demo App - C32 - PIC32_ENET_SK_DM320004_INTERNAL_ETHERNET\ICMP.o
 .rodata        0x9d0242f0        0x8 Objects - TCPIP Demo App - C32 - PIC32_ENET_SK_DM320004_INTERNAL_ETHERNET\MPFS2.o
 .rodata        0x9d0242f8      0x1e0 Objects - TCPIP Demo App - C32 - PIC32_ENET_SK_DM320004_INTERNAL_ETHERNET\SMTP.o
 .rodata        0x9d0244d8       0x44 Objects - TCPIP Demo App - C32 - PIC32_ENET_SK_DM320004_INTERNAL_ETHERNET\SNTP.o
 .rodata        0x9d02451c       0xa8 Objects - TCPIP Demo App - C32 - PIC32_ENET_SK_DM320004_INTERNAL_ETHERNET\TCP.o
                0x9d02451c                TCPSocketInitializer
 .rodata        0x9d0245c4       0x5c Objects - TCPIP Demo App - C32 - PIC32_ENET_SK_DM320004_INTERNAL_ETHERNET\TCPPerformanceTest.o
 .rodata        0x9d024620      0x200 Objects - TCPIP Demo App - C32 - PIC32_ENET_SK_DM320004_INTERNAL_ETHERNET\Telnet.o
 .rodata        0x9d024820      0x5d4 Objects - TCPIP Demo App - C32 - PIC32_ENET_SK_DM320004_INTERNAL_ETHERNET\CustomHTTPApp.o
                0x9d024ba4                HTML_UP_ARROW
                0x9d024ba8                HTML_DOWN_ARROW
 .rodata        0x9d024df4       0x14 Objects - TCPIP Demo App - C32 - PIC32_ENET_SK_DM320004_INTERNAL_ETHERNET\MainDemo.o
 .rodata        0x9d024e08       0x30 Objects - TCPIP Demo App - C32 - PIC32_ENET_SK_DM320004_INTERNAL_ETHERNET\BerkeleyTCPClientDemo.o
 .rodata        0x9d024e38       0x14 Objects - TCPIP Demo App - C32 - PIC32_ENET_SK_DM320004_INTERNAL_ETHERNET\BerkeleyTCPServerDemo.o
 .rodata        0x9d024e4c       0x2c Objects - TCPIP Demo App - C32 - PIC32_ENET_SK_DM320004_INTERNAL_ETHERNET\BerkeleyUDPClientDemo.o
 .rodata        0x9d024e78       0x7c Objects - TCPIP Demo App - C32 - PIC32_ENET_SK_DM320004_INTERNAL_ETHERNET\GenericTCPClient.o
 .rodata        0x9d024ef4       0x14 Objects - TCPIP Demo App - C32 - PIC32_ENET_SK_DM320004_INTERNAL_ETHERNET\PingDemo.o
 .rodata        0x9d024f08       0x50 Objects - TCPIP Demo App - C32 - PIC32_ENET_SK_DM320004_INTERNAL_ETHERNET\SMTPDemo.o
 .rodata        0x9d024f58     0x7bbc Objects - TCPIP Demo App - C32 - PIC32_ENET_SK_DM320004_INTERNAL_ETHERNET\MPFSImg2.o
                0x9d024f58                MPFS_Start
 .rodata._ctype
                0x9d02cb14      0x104 C:/Program Files (x86)/Microchip/MPLAB C32 Suite/bin/../lib/gcc/pic32mx/3.4.4/../../../../pic32mx/lib/size\libc.a(ctype.o)
                0x9d02cb14                _ctype
 .rodata._EthMIIClkDivTbl
                0x9d02cc18       0x10 C:/Program Files (x86)/Microchip/MPLAB C32 Suite/bin/../lib/gcc/pic32mx/3.4.4/../../../../pic32mx/lib/size\libmchp_peripheral_32MX795F512L.a(eth_miim_access.o)
 .rodata.__IntSrcTbl
                0x9d02cc28      0x51c C:/Program Files (x86)/Microchip/MPLAB C32 Suite/bin/../lib/gcc/pic32mx/3.4.4/../../../../pic32mx/lib/size\libmchp_peripheral_32MX795F512L.a(int_tbl_lib.o)
                0x9d02cc28                __IntSrcTbl
 .rodata.PortRegTbl
                0x9d02d144       0x54 C:/Program Files (x86)/Microchip/MPLAB C32 Suite/bin/../lib/gcc/pic32mx/3.4.4/../../../../pic32mx/lib/size\libmchp_peripheral_32MX795F512L.a(_ports_tbl_libp.o)
                0x9d02d144                PortRegTbl
 *(.rodata1)
                0x9d02d198                . = ALIGN (0x4)

.sdata2         0x9d02d198        0x0
 *(.sdata2 .sdata2.* .gnu.linkonce.s2.*)
                0x9d02d198                . = ALIGN (0x4)

.sbss2          0x9d02d198        0x0
 *(.sbss2 .sbss2.* .gnu.linkonce.sb2.*)
                0x9d02d198                . = ALIGN (0x4)

.eh_frame_hdr
 *(.eh_frame_hdr)

.eh_frame       0x9d02d198       0x20
 *(.eh_frame)
 .eh_frame      0x9d02d198       0x20 C:/Program Files (x86)/Microchip/MPLAB C32 Suite/bin/../lib/gcc/pic32mx/3.4.4/size\libgcc.a(_udivdi3.o)

.dbg_data       0xa0000000        0x0
                0xa0000000                . = (. + DEFINED (_DEBUGGER)?0x200:0x0)

.persist        0xa0000000        0x0
                0xa0000000                _persist_begin = .
 *(.persist .persist.*)
                0xa0000000                _persist_end = .

.data           0xa0000000      0x11c load address 0x9d02d1b8
                0xa0000000                _data_begin = .
 *(.data .data.* .gnu.linkonce.d.*)
 .data          0xa0000000       0x34 Objects - TCPIP Demo App - C32 - PIC32_ENET_SK_DM320004_INTERNAL_ETHERNET\DynDNS.o
 .data          0xa0000034       0x70 Objects - TCPIP Demo App - C32 - PIC32_ENET_SK_DM320004_INTERNAL_ETHERNET\BerkeleyTCPClientDemo.o
 .data          0xa00000a4       0x10 Objects - TCPIP Demo App - C32 - PIC32_ENET_SK_DM320004_INTERNAL_ETHERNET\GenericTCPClient.o
 .data          0xa00000b4       0x48 Objects - TCPIP Demo App - C32 - PIC32_ENET_SK_DM320004_INTERNAL_ETHERNET\SMTPDemo.o
 .data._EthRxBusyList
                0xa00000fc        0x8 C:/Program Files (x86)/Microchip/MPLAB C32 Suite/bin/../lib/gcc/pic32mx/3.4.4/../../../../pic32mx/lib/size\libmchp_peripheral_32MX795F512L.a(eth_descriptors_add_lib.o)
                0xa00000fc                _EthRxBusyList
 .data._EthRxFreeList
                0xa0000104        0x8 C:/Program Files (x86)/Microchip/MPLAB C32 Suite/bin/../lib/gcc/pic32mx/3.4.4/../../../../pic32mx/lib/size\libmchp_peripheral_32MX795F512L.a(eth_descriptors_add_lib.o)
                0xa0000104                _EthRxFreeList
 .data._EthTxBusyList
                0xa000010c        0x8 C:/Program Files (x86)/Microchip/MPLAB C32 Suite/bin/../lib/gcc/pic32mx/3.4.4/../../../../pic32mx/lib/size\libmchp_peripheral_32MX795F512L.a(eth_descriptors_add_lib.o)
                0xa000010c                _EthTxBusyList
 .data._EthTxFreeList
                0xa0000114        0x8 C:/Program Files (x86)/Microchip/MPLAB C32 Suite/bin/../lib/gcc/pic32mx/3.4.4/../../../../pic32mx/lib/size\libmchp_peripheral_32MX795F512L.a(eth_descriptors_add_lib.o)
                0xa0000114                _EthTxFreeList
 *(.gnu.linkonce.d.*personality*)
 *(.data1)
                0x9d02d1b8                _data_image_begin = LOADADDR (.data)

.eh_frame
 *(.eh_frame)
                0xa000011c                . = .
                0xa0008110                _gp = (ALIGN (0x10) + 0x7ff0)

.got
 *(.got.plt)
 *(.got)

.sdata          0xa000011c       0x34 load address 0x9d02d2d4
                0xa000011c                _sdata_begin = .
 *(.sdata .sdata.* .gnu.linkonce.s.*)
 .sdata         0xa000011c        0x2 Objects - TCPIP Demo App - C32 - PIC32_ENET_SK_DM320004_INTERNAL_ETHERNET\BerkeleyAPI.o
 *fill*         0xa000011e        0x2 00
 .sdata         0xa0000120        0x8 Objects - TCPIP Demo App - C32 - PIC32_ENET_SK_DM320004_INTERNAL_ETHERNET\DNS.o
 .sdata         0xa0000128        0x1 Objects - TCPIP Demo App - C32 - PIC32_ENET_SK_DM320004_INTERNAL_ETHERNET\DynDNS.o
 *fill*         0xa0000129        0x3 00
 .sdata         0xa000012c        0x4 Objects - TCPIP Demo App - C32 - PIC32_ENET_SK_DM320004_INTERNAL_ETHERNET\Helpers.o
 .sdata         0xa0000130        0x1 Objects - TCPIP Demo App - C32 - PIC32_ENET_SK_DM320004_INTERNAL_ETHERNET\Reboot.o
 .sdata         0xa0000131        0x1 Objects - TCPIP Demo App - C32 - PIC32_ENET_SK_DM320004_INTERNAL_ETHERNET\SMTP.o
 .sdata         0xa0000132        0x2 Objects - TCPIP Demo App - C32 - PIC32_ENET_SK_DM320004_INTERNAL_ETHERNET\TCP.o
 .sdata         0xa0000134        0x2 Objects - TCPIP Demo App - C32 - PIC32_ENET_SK_DM320004_INTERNAL_ETHERNET\TCPPerformanceTest.o
 .sdata         0xa0000136        0x2 Objects - TCPIP Demo App - C32 - PIC32_ENET_SK_DM320004_INTERNAL_ETHERNET\UDP.o
 .sdata         0xa0000138        0x4 Objects - TCPIP Demo App - C32 - PIC32_ENET_SK_DM320004_INTERNAL_ETHERNET\BerkeleyTCPClientDemo.o
 .sdata         0xa000013c        0x8 Objects - TCPIP Demo App - C32 - PIC32_ENET_SK_DM320004_INTERNAL_ETHERNET\GenericTCPClient.o
 .sdata._maxbrk
                0xa0000144        0x4 C:/Program Files (x86)/Microchip/MPLAB C32 Suite/bin/../lib/gcc/pic32mx/3.4.4/../../../../pic32mx/lib/size\libc.a(sbrk.o)
                0xa0000144                _maxbrk
 .sdata._minbrk
                0xa0000148        0x4 C:/Program Files (x86)/Microchip/MPLAB C32 Suite/bin/../lib/gcc/pic32mx/3.4.4/../../../../pic32mx/lib/size\libc.a(sbrk.o)
                0xa0000148                _minbrk
 .sdata.curbrk  0xa000014c        0x4 C:/Program Files (x86)/Microchip/MPLAB C32 Suite/bin/../lib/gcc/pic32mx/3.4.4/../../../../pic32mx/lib/size\libc.a(sbrk.o)
                0xa0000150                _sdata_end = .

.lit8
 *(.lit8)

.lit4
 *(.lit4)
                0xa0000150                . = ALIGN (0x4)
                0xa0000150                _data_end = .
                0xa0000150                _bss_begin = .

.sbss           0xa0000150      0x1c8 load address 0x9d02d308
                0xa0000150                _sbss_begin = .
 *(.dynsbss)
 *(.sbss .sbss.* .gnu.linkonce.sb.*)
 .sbss          0xa0000150        0x8 Objects - TCPIP Demo App - C32 - PIC32_ENET_SK_DM320004_INTERNAL_ETHERNET\Announce.o
 .sbss          0xa0000158        0x4 Objects - TCPIP Demo App - C32 - PIC32_ENET_SK_DM320004_INTERNAL_ETHERNET\ARP.o
 .sbss          0xa000015c        0x4 Objects - TCPIP Demo App - C32 - PIC32_ENET_SK_DM320004_INTERNAL_ETHERNET\BerkeleyAPI.o
 .sbss          0xa0000160       0x18 Objects - TCPIP Demo App - C32 - PIC32_ENET_SK_DM320004_INTERNAL_ETHERNET\DNS.o
 .sbss          0xa0000178       0x24 Objects - TCPIP Demo App - C32 - PIC32_ENET_SK_DM320004_INTERNAL_ETHERNET\DynDNS.o
 .sbss          0xa000019c       0x40 Objects - TCPIP Demo App - C32 - PIC32_ENET_SK_DM320004_INTERNAL_ETHERNET\ETHPIC32IntMac.o
                0xa00001b8                _stackMgrRxOkPkts
                0xa00001bc                _stackMgrRxBadPkts
                0xa00001c0                _stackMgrInGetHdr
                0xa00001c4                _stackMgrRxDiscarded
                0xa00001c8                _stackMgrTxNotReady
 .sbss          0xa00001dc        0xc Objects - TCPIP Demo App - C32 - PIC32_ENET_SK_DM320004_INTERNAL_ETHERNET\ICMP.o
 .sbss          0xa00001e8        0x4 Objects - TCPIP Demo App - C32 - PIC32_ENET_SK_DM320004_INTERNAL_ETHERNET\IP.o
 .sbss          0xa00001ec        0x8 Objects - TCPIP Demo App - C32 - PIC32_ENET_SK_DM320004_INTERNAL_ETHERNET\MPFS2.o
 .sbss          0xa00001f4        0x8 Objects - TCPIP Demo App - C32 - PIC32_ENET_SK_DM320004_INTERNAL_ETHERNET\NBNS.o
 .sbss          0xa00001fc       0x38 Objects - TCPIP Demo App - C32 - PIC32_ENET_SK_DM320004_INTERNAL_ETHERNET\SMTP.o
 .sbss          0xa0000234       0x14 Objects - TCPIP Demo App - C32 - PIC32_ENET_SK_DM320004_INTERNAL_ETHERNET\SNTP.o
 .sbss          0xa0000248        0x4 Objects - TCPIP Demo App - C32 - PIC32_ENET_SK_DM320004_INTERNAL_ETHERNET\StackTsk.o
 .sbss          0xa000024c        0x2 Objects - TCPIP Demo App - C32 - PIC32_ENET_SK_DM320004_INTERNAL_ETHERNET\TCP.o
 *fill*         0xa000024e        0x2 00
 .sbss          0xa0000250       0x14 Objects - TCPIP Demo App - C32 - PIC32_ENET_SK_DM320004_INTERNAL_ETHERNET\TCPPerformanceTest.o
 .sbss          0xa0000264       0x10 Objects - TCPIP Demo App - C32 - PIC32_ENET_SK_DM320004_INTERNAL_ETHERNET\Telnet.o
 .sbss          0xa0000274        0xc Objects - TCPIP Demo App - C32 - PIC32_ENET_SK_DM320004_INTERNAL_ETHERNET\Tick.o
 .sbss          0xa0000280        0xc Objects - TCPIP Demo App - C32 - PIC32_ENET_SK_DM320004_INTERNAL_ETHERNET\UDP.o
 .sbss          0xa000028c       0x14 Objects - TCPIP Demo App - C32 - PIC32_ENET_SK_DM320004_INTERNAL_ETHERNET\CustomHTTPApp.o
 .sbss          0xa00002a0        0xc Objects - TCPIP Demo App - C32 - PIC32_ENET_SK_DM320004_INTERNAL_ETHERNET\MainDemo.o
 .sbss          0xa00002ac        0x1 Objects - TCPIP Demo App - C32 - PIC32_ENET_SK_DM320004_INTERNAL_ETHERNET\BerkeleyTCPClientDemo.o
 *fill*         0xa00002ad        0x3 00
 .sbss          0xa00002b0        0xc Objects - TCPIP Demo App - C32 - PIC32_ENET_SK_DM320004_INTERNAL_ETHERNET\BerkeleyTCPServerDemo.o
 .sbss          0xa00002bc       0x18 Objects - TCPIP Demo App - C32 - PIC32_ENET_SK_DM320004_INTERNAL_ETHERNET\BerkeleyUDPClientDemo.o
 .sbss          0xa00002d4        0x4 Objects - TCPIP Demo App - C32 - PIC32_ENET_SK_DM320004_INTERNAL_ETHERNET\GenericTCPClient.o
 .sbss          0xa00002d8        0x8 Objects - TCPIP Demo App - C32 - PIC32_ENET_SK_DM320004_INTERNAL_ETHERNET\GenericTCPServer.o
 .sbss          0xa00002e0        0x8 Objects - TCPIP Demo App - C32 - PIC32_ENET_SK_DM320004_INTERNAL_ETHERNET\PingDemo.o
 .sbss          0xa00002e8        0x8 Objects - TCPIP Demo App - C32 - PIC32_ENET_SK_DM320004_INTERNAL_ETHERNET\SMTPDemo.o
 .sbss.allocp   0xa00002f0        0x4 C:/Program Files (x86)/Microchip/MPLAB C32 Suite/bin/../lib/gcc/pic32mx/3.4.4/../../../../pic32mx/lib/size\libc.a(malloc.o)
 .sbss.alloct   0xa00002f4        0x4 C:/Program Files (x86)/Microchip/MPLAB C32 Suite/bin/../lib/gcc/pic32mx/3.4.4/../../../../pic32mx/lib/size\libc.a(malloc.o)
 .sbss.allocx   0xa00002f8        0x8 C:/Program Files (x86)/Microchip/MPLAB C32 Suite/bin/../lib/gcc/pic32mx/3.4.4/../../../../pic32mx/lib/size\libc.a(malloc.o)
 .sbss.errno    0xa0000300        0x4 C:/Program Files (x86)/Microchip/MPLAB C32 Suite/bin/../lib/gcc/pic32mx/3.4.4/../../../../pic32mx/lib/size\libc.a(errno.o)
                0xa0000300                errno
 *(.scommon)
 .scommon       0xa0000304        0x4 Objects - TCPIP Demo App - C32 - PIC32_ENET_SK_DM320004_INTERNAL_ETHERNET\ETHPIC32ExtPhy.o
                0xa0000304                _PhyAdd
 .scommon       0xa0000308        0x1 Objects - TCPIP Demo App - C32 - PIC32_ENET_SK_DM320004_INTERNAL_ETHERNET\HTTP2.o
                0xa0000308                curHTTPID
 *fill*         0xa0000309        0x1 00
 .scommon       0xa000030a        0x6 Objects - TCPIP Demo App - C32 - PIC32_ENET_SK_DM320004_INTERNAL_ETHERNET\UDP.o
                0xa000030a                activeUDPSocket
                0xa000030c                UDPTxCount
                0xa000030e                UDPRxCount
 .scommon       0xa0000310        0x8 Objects - TCPIP Demo App - C32 - PIC32_ENET_SK_DM320004_INTERNAL_ETHERNET\MainDemo.o
                0xa0000310                AN0String
                0xa0000318                _sbss_end = .

.bss            0xa0000318     0x8374 load address 0x9d02d308
 *(.dynbss)
 *(.bss .bss.* .gnu.linkonce.b.*)
 .bss           0xa0000318       0x18 Objects - TCPIP Demo App - C32 - PIC32_ENET_SK_DM320004_INTERNAL_ETHERNET\ARP.o
 .bss           0xa0000330       0x8c Objects - TCPIP Demo App - C32 - PIC32_ENET_SK_DM320004_INTERNAL_ETHERNET\BerkeleyAPI.o
 .bss           0xa00003bc        0xc Objects - TCPIP Demo App - C32 - PIC32_ENET_SK_DM320004_INTERNAL_ETHERNET\DNS.o
 .bss           0xa00003c8       0x10 Objects - TCPIP Demo App - C32 - PIC32_ENET_SK_DM320004_INTERNAL_ETHERNET\DynDNS.o
 .bss           0xa00003d8     0x3cf8 Objects - TCPIP Demo App - C32 - PIC32_ENET_SK_DM320004_INTERNAL_ETHERNET\ETHPIC32IntMac.o
 .bss           0xa00040d0        0xc Objects - TCPIP Demo App - C32 - PIC32_ENET_SK_DM320004_INTERNAL_ETHERNET\ICMP.o
 .bss           0xa00040dc       0x78 Objects - TCPIP Demo App - C32 - PIC32_ENET_SK_DM320004_INTERNAL_ETHERNET\MPFS2.o
 .bss           0xa0004154        0xc Objects - TCPIP Demo App - C32 - PIC32_ENET_SK_DM320004_INTERNAL_ETHERNET\SNTP.o
 .bss           0xa0004160     0x4224 Objects - TCPIP Demo App - C32 - PIC32_ENET_SK_DM320004_INTERNAL_ETHERNET\TCP.o
 .bss           0xa0008384        0xc Objects - TCPIP Demo App - C32 - PIC32_ENET_SK_DM320004_INTERNAL_ETHERNET\TCPPerformanceTest.o
 .bss           0xa0008390       0xc0 Objects - TCPIP Demo App - C32 - PIC32_ENET_SK_DM320004_INTERNAL_ETHERNET\CustomHTTPApp.o
 .bss           0xa0008450       0x10 Objects - TCPIP Demo App - C32 - PIC32_ENET_SK_DM320004_INTERNAL_ETHERNET\BerkeleyTCPClientDemo.o
 .bss           0xa0008460       0x10 Objects - TCPIP Demo App - C32 - PIC32_ENET_SK_DM320004_INTERNAL_ETHERNET\BerkeleyUDPClientDemo.o
 .bss.allocs    0xa0008470       0x10 C:/Program Files (x86)/Microchip/MPLAB C32 Suite/bin/../lib/gcc/pic32mx/3.4.4/../../../../pic32mx/lib/size\libc.a(malloc.o)
 .bss.mem.0     0xa0008480       0x18 C:/Program Files (x86)/Microchip/MPLAB C32 Suite/bin/../lib/gcc/pic32mx/3.4.4/../../../../pic32mx/lib/size\libc.a(sbrk.o)
 *(COMMON)
 COMMON         0xa0008498       0x20 Objects - TCPIP Demo App - C32 - PIC32_ENET_SK_DM320004_INTERNAL_ETHERNET\DynDNS.o
                0xa0008498                DDNSClient
 COMMON         0xa00084b8       0x40 Objects - TCPIP Demo App - C32 - PIC32_ENET_SK_DM320004_INTERNAL_ETHERNET\Hashes.o
                0xa00084b8                lastBlock
 COMMON         0xa00084f8       0x9c Objects - TCPIP Demo App - C32 - PIC32_ENET_SK_DM320004_INTERNAL_ETHERNET\HTTP2.o
                0xa00084f8                curHTTP
                0xa0008584                httpStubs
 COMMON         0xa0008594       0x2c Objects - TCPIP Demo App - C32 - PIC32_ENET_SK_DM320004_INTERNAL_ETHERNET\SMTP.o
                0xa0008594                SMTPClient
 COMMON         0xa00085c0        0xa Objects - TCPIP Demo App - C32 - PIC32_ENET_SK_DM320004_INTERNAL_ETHERNET\StackTsk.o
                0xa00085c0                remoteNode
 *fill*         0xa00085ca        0x2 00
 COMMON         0xa00085cc       0x8c Objects - TCPIP Demo App - C32 - PIC32_ENET_SK_DM320004_INTERNAL_ETHERNET\UDP.o
                0xa00085cc                UDPSocketInfo
 COMMON         0xa0008658       0x33 Objects - TCPIP Demo App - C32 - PIC32_ENET_SK_DM320004_INTERNAL_ETHERNET\MainDemo.o
                0xa0008658                AppConfig
                0xa000868c                . = ALIGN (0x4)
 *fill*         0xa000868b        0x1 00
                0xa000868c                . = ALIGN (0x4)
                0xa000868c                _end = .
                0xa000868c                _bss_end = .

.heap           0xa0008690     0x3e80 load address 0x9d02d308
                0xa0008690                _heap = .
                0xa000c510                . = (. + _min_heap_size)
 *fill*         0xa0008690     0x3e80 00
                0xa000c510                . = ALIGN (0x8)

.stack          0xa000c510      0x800 load address 0x9d02d308
                0xa000c510                _splim = .
                0xa000c510                _SPLIM = .
                0xa000cd10                . = (. + _min_stack_size)
 *fill*         0xa000c510      0x800 00
                0xa000cd10                . = ALIGN (0x8)

.ramfunc        0xa000d000        0x0 load address 0x9d02d308
                0xa000d000                _ramfunc_begin = .
 *(.ramfunc .ramfunc.*)
                0xa000d000                . = ALIGN (0x4)
                0xa000d000                _ramfunc_end = .
                0x9d02d308                _ramfunc_image_begin = LOADADDR (.ramfunc)
                0x00000000                _ramfunc_length = SIZEOF (.ramfunc)
                0x0000d000                _bmxdkpba_address = (_ramfunc_begin - 0xa0000000)
                0x00020000                _bmxdudba_address = 0x20000
                0x00020000                _bmxdupba_address = 0x20000
                0xa0020000                _stack = (_ramfunc_length > 0x0)?(_ramfunc_begin - 0x8):0xa0020000
                0x00000001                ASSERT (((_min_stack_size + _min_heap_size) <= (_stack - _heap)), Not enough space to allocate both stack and heap.  Reduce heap and/or stack size.)

/DISCARD/
 *(.pdr)
 *(.reginfo)
 *(.rel.dyn)
 *(.note.GNU-stack)

.stab
 *(.stab)

.stabstr
 *(.stabstr)

.stab.excl
 *(.stab.excl)

.stab.exclstr
 *(.stab.exclstr)

.stab.index
 *(.stab.index)

.stab.indexstr
 *(.stab.indexstr)

.mdebug.abi32   0x00000000        0x0
 .mdebug.abi32  0x00000000        0x0 Objects - TCPIP Demo App - C32 - PIC32_ENET_SK_DM320004_INTERNAL_ETHERNET\Announce.o
 .mdebug.abi32  0x00000000        0x0 Objects - TCPIP Demo App - C32 - PIC32_ENET_SK_DM320004_INTERNAL_ETHERNET\ARCFOUR.o
 .mdebug.abi32  0x00000000        0x0 Objects - TCPIP Demo App - C32 - PIC32_ENET_SK_DM320004_INTERNAL_ETHERNET\ARP.o
 .mdebug.abi32  0x00000000        0x0 Objects - TCPIP Demo App - C32 - PIC32_ENET_SK_DM320004_INTERNAL_ETHERNET\AutoIP.o
 .mdebug.abi32  0x00000000        0x0 Objects - TCPIP Demo App - C32 - PIC32_ENET_SK_DM320004_INTERNAL_ETHERNET\BerkeleyAPI.o
 .mdebug.abi32  0x00000000        0x0 Objects - TCPIP Demo App - C32 - PIC32_ENET_SK_DM320004_INTERNAL_ETHERNET\BigInt.o
 .mdebug.abi32  0x00000000        0x0 Objects - TCPIP Demo App - C32 - PIC32_ENET_SK_DM320004_INTERNAL_ETHERNET\Delay.o
 .mdebug.abi32  0x00000000        0x0 Objects - TCPIP Demo App - C32 - PIC32_ENET_SK_DM320004_INTERNAL_ETHERNET\DHCP.o
 .mdebug.abi32  0x00000000        0x0 Objects - TCPIP Demo App - C32 - PIC32_ENET_SK_DM320004_INTERNAL_ETHERNET\DHCPs.o
 .mdebug.abi32  0x00000000        0x0 Objects - TCPIP Demo App - C32 - PIC32_ENET_SK_DM320004_INTERNAL_ETHERNET\DNS.o
 .mdebug.abi32  0x00000000        0x0 Objects - TCPIP Demo App - C32 - PIC32_ENET_SK_DM320004_INTERNAL_ETHERNET\DNSs.o
 .mdebug.abi32  0x00000000        0x0 Objects - TCPIP Demo App - C32 - PIC32_ENET_SK_DM320004_INTERNAL_ETHERNET\DynDNS.o
 .mdebug.abi32  0x00000000        0x0 Objects - TCPIP Demo App - C32 - PIC32_ENET_SK_DM320004_INTERNAL_ETHERNET\ENC28J60.o
 .mdebug.abi32  0x00000000        0x0 Objects - TCPIP Demo App - C32 - PIC32_ENET_SK_DM320004_INTERNAL_ETHERNET\ENCX24J600.o
 .mdebug.abi32  0x00000000        0x0 Objects - TCPIP Demo App - C32 - PIC32_ENET_SK_DM320004_INTERNAL_ETHERNET\ETHPIC32ExtPhy.o
 .mdebug.abi32  0x00000000        0x0 Objects - TCPIP Demo App - C32 - PIC32_ENET_SK_DM320004_INTERNAL_ETHERNET\ETHPIC32ExtPhyDP83848.o
 .mdebug.abi32  0x00000000        0x0 Objects - TCPIP Demo App - C32 - PIC32_ENET_SK_DM320004_INTERNAL_ETHERNET\ETHPIC32IntMac.o
 .mdebug.abi32  0x00000000        0x0 Objects - TCPIP Demo App - C32 - PIC32_ENET_SK_DM320004_INTERNAL_ETHERNET\FileSystem.o
 .mdebug.abi32  0x00000000        0x0 Objects - TCPIP Demo App - C32 - PIC32_ENET_SK_DM320004_INTERNAL_ETHERNET\FTP.o
 .mdebug.abi32  0x00000000        0x0 Objects - TCPIP Demo App - C32 - PIC32_ENET_SK_DM320004_INTERNAL_ETHERNET\Hashes.o
 .mdebug.abi32  0x00000000        0x0 Objects - TCPIP Demo App - C32 - PIC32_ENET_SK_DM320004_INTERNAL_ETHERNET\Helpers.o
 .mdebug.abi32  0x00000000        0x0 Objects - TCPIP Demo App - C32 - PIC32_ENET_SK_DM320004_INTERNAL_ETHERNET\HTTP2.o
 .mdebug.abi32  0x00000000        0x0 Objects - TCPIP Demo App - C32 - PIC32_ENET_SK_DM320004_INTERNAL_ETHERNET\HTTP.o
 .mdebug.abi32  0x00000000        0x0 Objects - TCPIP Demo App - C32 - PIC32_ENET_SK_DM320004_INTERNAL_ETHERNET\ICMP.o
 .mdebug.abi32  0x00000000        0x0 Objects - TCPIP Demo App - C32 - PIC32_ENET_SK_DM320004_INTERNAL_ETHERNET\IP.o
 .mdebug.abi32  0x00000000        0x0 Objects - TCPIP Demo App - C32 - PIC32_ENET_SK_DM320004_INTERNAL_ETHERNET\LCDBlocking.o
 .mdebug.abi32  0x00000000        0x0 Objects - TCPIP Demo App - C32 - PIC32_ENET_SK_DM320004_INTERNAL_ETHERNET\MPFS2.o
 .mdebug.abi32  0x00000000        0x0 Objects - TCPIP Demo App - C32 - PIC32_ENET_SK_DM320004_INTERNAL_ETHERNET\MPFS.o
 .mdebug.abi32  0x00000000        0x0 Objects - TCPIP Demo App - C32 - PIC32_ENET_SK_DM320004_INTERNAL_ETHERNET\NBNS.o
 .mdebug.abi32  0x00000000        0x0 Objects - TCPIP Demo App - C32 - PIC32_ENET_SK_DM320004_INTERNAL_ETHERNET\Random.o
 .mdebug.abi32  0x00000000        0x0 Objects - TCPIP Demo App - C32 - PIC32_ENET_SK_DM320004_INTERNAL_ETHERNET\Reboot.o
 .mdebug.abi32  0x00000000        0x0 Objects - TCPIP Demo App - C32 - PIC32_ENET_SK_DM320004_INTERNAL_ETHERNET\RSA.o
 .mdebug.abi32  0x00000000        0x0 Objects - TCPIP Demo App - C32 - PIC32_ENET_SK_DM320004_INTERNAL_ETHERNET\SMTP.o
 .mdebug.abi32  0x00000000        0x0 Objects - TCPIP Demo App - C32 - PIC32_ENET_SK_DM320004_INTERNAL_ETHERNET\SNMP.o
 .mdebug.abi32  0x00000000        0x0 Objects - TCPIP Demo App - C32 - PIC32_ENET_SK_DM320004_INTERNAL_ETHERNET\SNMPv3.o
 .mdebug.abi32  0x00000000        0x0 Objects - TCPIP Demo App - C32 - PIC32_ENET_SK_DM320004_INTERNAL_ETHERNET\SNMPv3USM.o
 .mdebug.abi32  0x00000000        0x0 Objects - TCPIP Demo App - C32 - PIC32_ENET_SK_DM320004_INTERNAL_ETHERNET\SNTP.o
 .mdebug.abi32  0x00000000        0x0 Objects - TCPIP Demo App - C32 - PIC32_ENET_SK_DM320004_INTERNAL_ETHERNET\SPIEEPROM.o
 .mdebug.abi32  0x00000000        0x0 Objects - TCPIP Demo App - C32 - PIC32_ENET_SK_DM320004_INTERNAL_ETHERNET\SPIFlash.o
 .mdebug.abi32  0x00000000        0x0 Objects - TCPIP Demo App - C32 - PIC32_ENET_SK_DM320004_INTERNAL_ETHERNET\SPIRAM.o
 .mdebug.abi32  0x00000000        0x0 Objects - TCPIP Demo App - C32 - PIC32_ENET_SK_DM320004_INTERNAL_ETHERNET\SSL.o
 .mdebug.abi32  0x00000000        0x0 Objects - TCPIP Demo App - C32 - PIC32_ENET_SK_DM320004_INTERNAL_ETHERNET\StackTsk.o
 .mdebug.abi32  0x00000000        0x0 Objects - TCPIP Demo App - C32 - PIC32_ENET_SK_DM320004_INTERNAL_ETHERNET\TCP.o
 .mdebug.abi32  0x00000000        0x0 Objects - TCPIP Demo App - C32 - PIC32_ENET_SK_DM320004_INTERNAL_ETHERNET\TCPPerformanceTest.o
 .mdebug.abi32  0x00000000        0x0 Objects - TCPIP Demo App - C32 - PIC32_ENET_SK_DM320004_INTERNAL_ETHERNET\Telnet.o
 .mdebug.abi32  0x00000000        0x0 Objects - TCPIP Demo App - C32 - PIC32_ENET_SK_DM320004_INTERNAL_ETHERNET\TFTPc.o
 .mdebug.abi32  0x00000000        0x0 Objects - TCPIP Demo App - C32 - PIC32_ENET_SK_DM320004_INTERNAL_ETHERNET\Tick.o
 .mdebug.abi32  0x00000000        0x0 Objects - TCPIP Demo App - C32 - PIC32_ENET_SK_DM320004_INTERNAL_ETHERNET\UART2TCPBridge.o
 .mdebug.abi32  0x00000000        0x0 Objects - TCPIP Demo App - C32 - PIC32_ENET_SK_DM320004_INTERNAL_ETHERNET\UART.o
 .mdebug.abi32  0x00000000        0x0 Objects - TCPIP Demo App - C32 - PIC32_ENET_SK_DM320004_INTERNAL_ETHERNET\UDP.o
 .mdebug.abi32  0x00000000        0x0 Objects - TCPIP Demo App - C32 - PIC32_ENET_SK_DM320004_INTERNAL_ETHERNET\UDPPerformanceTest.o
 .mdebug.abi32  0x00000000        0x0 Objects - TCPIP Demo App - C32 - PIC32_ENET_SK_DM320004_INTERNAL_ETHERNET\ZeroconfHelper.o
 .mdebug.abi32  0x00000000        0x0 Objects - TCPIP Demo App - C32 - PIC32_ENET_SK_DM320004_INTERNAL_ETHERNET\ZeroconfLinkLocal.o
 .mdebug.abi32  0x00000000        0x0 Objects - TCPIP Demo App - C32 - PIC32_ENET_SK_DM320004_INTERNAL_ETHERNET\ZeroconfMulticastDNS.o
 .mdebug.abi32  0x00000000        0x0 Objects - TCPIP Demo App - C32 - PIC32_ENET_SK_DM320004_INTERNAL_ETHERNET\CustomHTTPApp.o
 .mdebug.abi32  0x00000000        0x0 Objects - TCPIP Demo App - C32 - PIC32_ENET_SK_DM320004_INTERNAL_ETHERNET\CustomSNMPApp.o
 .mdebug.abi32  0x00000000        0x0 Objects - TCPIP Demo App - C32 - PIC32_ENET_SK_DM320004_INTERNAL_ETHERNET\CustomSSLCert.o
 .mdebug.abi32  0x00000000        0x0 Objects - TCPIP Demo App - C32 - PIC32_ENET_SK_DM320004_INTERNAL_ETHERNET\MainDemo.o
 .mdebug.abi32  0x00000000        0x0 Objects - TCPIP Demo App - C32 - PIC32_ENET_SK_DM320004_INTERNAL_ETHERNET\BerkeleyTCPClientDemo.o
 .mdebug.abi32  0x00000000        0x0 Objects - TCPIP Demo App - C32 - PIC32_ENET_SK_DM320004_INTERNAL_ETHERNET\BerkeleyTCPServerDemo.o
 .mdebug.abi32  0x00000000        0x0 Objects - TCPIP Demo App - C32 - PIC32_ENET_SK_DM320004_INTERNAL_ETHERNET\BerkeleyUDPClientDemo.o
 .mdebug.abi32  0x00000000        0x0 Objects - TCPIP Demo App - C32 - PIC32_ENET_SK_DM320004_INTERNAL_ETHERNET\GenericTCPClient.o
 .mdebug.abi32  0x00000000        0x0 Objects - TCPIP Demo App - C32 - PIC32_ENET_SK_DM320004_INTERNAL_ETHERNET\GenericTCPServer.o
 .mdebug.abi32  0x00000000        0x0 Objects - TCPIP Demo App - C32 - PIC32_ENET_SK_DM320004_INTERNAL_ETHERNET\LegacyHTTPApp.o
 .mdebug.abi32  0x00000000        0x0 Objects - TCPIP Demo App - C32 - PIC32_ENET_SK_DM320004_INTERNAL_ETHERNET\PingDemo.o
 .mdebug.abi32  0x00000000        0x0 Objects - TCPIP Demo App - C32 - PIC32_ENET_SK_DM320004_INTERNAL_ETHERNET\SMTPDemo.o
 .mdebug.abi32  0x00000000        0x0 Objects - TCPIP Demo App - C32 - PIC32_ENET_SK_DM320004_INTERNAL_ETHERNET\UARTConfig.o
 .mdebug.abi32  0x00000000        0x0 Objects - TCPIP Demo App - C32 - PIC32_ENET_SK_DM320004_INTERNAL_ETHERNET\MPFSImg2.o
 .mdebug.abi32  0x00000000        0x0 Objects - TCPIP Demo App - C32 - PIC32_ENET_SK_DM320004_INTERNAL_ETHERNET\MPFSImg.o
 .mdebug.abi32  0x00000000        0x0 C:/Program Files (x86)/Microchip/MPLAB C32 Suite/bin/../lib/gcc/pic32mx/3.4.4/size\libgcc.a(_udivdi3.o)
 .mdebug.abi32  0x00000000        0x0 C:/Program Files (x86)/Microchip/MPLAB C32 Suite/bin/../lib/gcc/pic32mx/3.4.4/../../../../pic32mx/lib/size\libc.a(atoi.o)
 .mdebug.abi32  0x00000000        0x0 C:/Program Files (x86)/Microchip/MPLAB C32 Suite/bin/../lib/gcc/pic32mx/3.4.4/../../../../pic32mx/lib/size\libc.a(atol.o)
 .mdebug.abi32  0x00000000        0x0 C:/Program Files (x86)/Microchip/MPLAB C32 Suite/bin/../lib/gcc/pic32mx/3.4.4/../../../../pic32mx/lib/size\libc.a(calloc.o)
 .mdebug.abi32  0x00000000        0x0 C:/Program Files (x86)/Microchip/MPLAB C32 Suite/bin/../lib/gcc/pic32mx/3.4.4/../../../../pic32mx/lib/size\libc.a(ctype.o)
 .mdebug.abi32  0x00000000        0x0 C:/Program Files (x86)/Microchip/MPLAB C32 Suite/bin/../lib/gcc/pic32mx/3.4.4/../../../../pic32mx/lib/size\libc.a(malloc.o)
 .mdebug.abi32  0x00000000        0x0 C:/Program Files (x86)/Microchip/MPLAB C32 Suite/bin/../lib/gcc/pic32mx/3.4.4/../../../../pic32mx/lib/size\libc.a(strchr.o)
 .mdebug.abi32  0x00000000        0x0 C:/Program Files (x86)/Microchip/MPLAB C32 Suite/bin/../lib/gcc/pic32mx/3.4.4/../../../../pic32mx/lib/size\libc.a(strstr.o)
 .mdebug.abi32  0x00000000        0x0 C:/Program Files (x86)/Microchip/MPLAB C32 Suite/bin/../lib/gcc/pic32mx/3.4.4/../../../../pic32mx/lib/size\libc.a(sbrk.o)
 .mdebug.abi32  0x00000000        0x0 C:/Program Files (x86)/Microchip/MPLAB C32 Suite/bin/../lib/gcc/pic32mx/3.4.4/../../../../pic32mx/lib/size\libc.a(default-bootstrap-exception-handler.o)
 .mdebug.abi32  0x00000000        0x0 C:/Program Files (x86)/Microchip/MPLAB C32 Suite/bin/../lib/gcc/pic32mx/3.4.4/../../../../pic32mx/lib/size\libc.a(default-on-reset.o)
 .mdebug.abi32  0x00000000        0x0 C:/Program Files (x86)/Microchip/MPLAB C32 Suite/bin/../lib/gcc/pic32mx/3.4.4/../../../../pic32mx/lib/size\libc.a(default-on-bootstrap.o)
 .mdebug.abi32  0x00000000        0x0 C:/Program Files (x86)/Microchip/MPLAB C32 Suite/bin/../lib/gcc/pic32mx/3.4.4/../../../../pic32mx/lib/size\libc.a(errno.o)
 .mdebug.abi32  0x00000000        0x0 C:/Program Files (x86)/Microchip/MPLAB C32 Suite/bin/../lib/gcc/pic32mx/3.4.4/../../../../pic32mx/lib/size\libc.a(strncmp.o)
 .mdebug.abi32  0x00000000        0x0 C:/Program Files (x86)/Microchip/MPLAB C32 Suite/bin/../lib/gcc/pic32mx/3.4.4/../../../../pic32mx/lib/size\libmchp_peripheral.a(read_core_timer_lib.o)
 .mdebug.abi32  0x00000000        0x0 C:/Program Files (x86)/Microchip/MPLAB C32 Suite/bin/../lib/gcc/pic32mx/3.4.4/../../../../pic32mx/lib/size\libmchp_peripheral_32MX795F512L.a(eth_ack_packet_lib.o)
 .mdebug.abi32  0x00000000        0x0 C:/Program Files (x86)/Microchip/MPLAB C32 Suite/bin/../lib/gcc/pic32mx/3.4.4/../../../../pic32mx/lib/size\libmchp_peripheral_32MX795F512L.a(eth_descriptors_add_lib.o)
 .mdebug.abi32  0x00000000        0x0 C:/Program Files (x86)/Microchip/MPLAB C32 Suite/bin/../lib/gcc/pic32mx/3.4.4/../../../../pic32mx/lib/size\libmchp_peripheral_32MX795F512L.a(eth_init_lib.o)
 .mdebug.abi32  0x00000000        0x0 C:/Program Files (x86)/Microchip/MPLAB C32 Suite/bin/../lib/gcc/pic32mx/3.4.4/../../../../pic32mx/lib/size\libmchp_peripheral_32MX795F512L.a(eth_mac_open_lib.o)
 .mdebug.abi32  0x00000000        0x0 C:/Program Files (x86)/Microchip/MPLAB C32 Suite/bin/../lib/gcc/pic32mx/3.4.4/../../../../pic32mx/lib/size\libmchp_peripheral_32MX795F512L.a(eth_mac_set_address_max_lib.o)
 .mdebug.abi32  0x00000000        0x0 C:/Program Files (x86)/Microchip/MPLAB C32 Suite/bin/../lib/gcc/pic32mx/3.4.4/../../../../pic32mx/lib/size\libmchp_peripheral_32MX795F512L.a(eth_rx_buffers_append_lib.o)
 .mdebug.abi32  0x00000000        0x0 C:/Program Files (x86)/Microchip/MPLAB C32 Suite/bin/../lib/gcc/pic32mx/3.4.4/../../../../pic32mx/lib/size\libmchp_peripheral_32MX795F512L.a(eth_rx_filters_lib.o)
 .mdebug.abi32  0x00000000        0x0 C:/Program Files (x86)/Microchip/MPLAB C32 Suite/bin/../lib/gcc/pic32mx/3.4.4/../../../../pic32mx/lib/size\libmchp_peripheral_32MX795F512L.a(eth_rx_get_packet_lib.o)
 .mdebug.abi32  0x00000000        0x0 C:/Program Files (x86)/Microchip/MPLAB C32 Suite/bin/../lib/gcc/pic32mx/3.4.4/../../../../pic32mx/lib/size\libmchp_peripheral_32MX795F512L.a(eth_rx_set_buffer_size_lib.o)
 .mdebug.abi32  0x00000000        0x0 C:/Program Files (x86)/Microchip/MPLAB C32 Suite/bin/../lib/gcc/pic32mx/3.4.4/../../../../pic32mx/lib/size\libmchp_peripheral_32MX795F512L.a(eth_tx_packet_lib.o)
 .mdebug.abi32  0x00000000        0x0 C:/Program Files (x86)/Microchip/MPLAB C32 Suite/bin/../lib/gcc/pic32mx/3.4.4/../../../../pic32mx/lib/size\libmchp_peripheral_32MX795F512L.a(_eth_append_busy_list_lib.o)
 .mdebug.abi32  0x00000000        0x0 C:/Program Files (x86)/Microchip/MPLAB C32 Suite/bin/../lib/gcc/pic32mx/3.4.4/../../../../pic32mx/lib/size\libmchp_peripheral_32MX795F512L.a(eth_miim_access.o)
 .mdebug.abi32  0x00000000        0x0 C:/Program Files (x86)/Microchip/MPLAB C32 Suite/bin/../lib/gcc/pic32mx/3.4.4/../../../../pic32mx/lib/size\libmchp_peripheral_32MX795F512L.a(soft_reset_lib.o)
 .mdebug.abi32  0x00000000        0x0 C:/Program Files (x86)/Microchip/MPLAB C32 Suite/bin/../lib/gcc/pic32mx/3.4.4/../../../../pic32mx/lib/size\libmchp_peripheral_32MX795F512L.a(pcache.o)
 .mdebug.abi32  0x00000000        0x0 C:/Program Files (x86)/Microchip/MPLAB C32 Suite/bin/../lib/gcc/pic32mx/3.4.4/../../../../pic32mx/lib/size\libmchp_peripheral_32MX795F512L.a(int_disable_interrupts_lib.o)
 .mdebug.abi32  0x00000000        0x0 C:/Program Files (x86)/Microchip/MPLAB C32 Suite/bin/../lib/gcc/pic32mx/3.4.4/../../../../pic32mx/lib/size\libmchp_peripheral_32MX795F512L.a(int_restore_interrupts_lib.o)
 .mdebug.abi32  0x00000000        0x0 C:/Program Files (x86)/Microchip/MPLAB C32 Suite/bin/../lib/gcc/pic32mx/3.4.4/../../../../pic32mx/lib/size\libmchp_peripheral_32MX795F512L.a(int_enable_mv_int_lib.o)
 .mdebug.abi32  0x00000000        0x0 C:/Program Files (x86)/Microchip/MPLAB C32 Suite/bin/../lib/gcc/pic32mx/3.4.4/../../../../pic32mx/lib/size\libmchp_peripheral_32MX795F512L.a(int_tbl_lib.o)
 .mdebug.abi32  0x00000000        0x0 C:/Program Files (x86)/Microchip/MPLAB C32 Suite/bin/../lib/gcc/pic32mx/3.4.4/../../../../pic32mx/lib/size\libmchp_peripheral_32MX795F512L.a(port_set_pins_digital_in_lib.o)
 .mdebug.abi32  0x00000000        0x0 C:/Program Files (x86)/Microchip/MPLAB C32 Suite/bin/../lib/gcc/pic32mx/3.4.4/../../../../pic32mx/lib/size\libmchp_peripheral_32MX795F512L.a(port_set_pins_digital_out_lib.o)
 .mdebug.abi32  0x00000000        0x0 C:/Program Files (x86)/Microchip/MPLAB C32 Suite/bin/../lib/gcc/pic32mx/3.4.4/../../../../pic32mx/lib/size\libmchp_peripheral_32MX795F512L.a(_ports_tbl_libp.o)
 .mdebug.abi32  0x00000000        0x0 C:/Program Files (x86)/Microchip/MPLAB C32 Suite/bin/../lib/gcc/pic32mx/3.4.4/../../../../pic32mx/lib/size\libmchp_peripheral_32MX795F512L.a(int_enable_interrupts_lib.o)

.comment        0x00000000     0x2229
 *(.comment)
 .comment       0x00000000       0x4d Objects - TCPIP Demo App - C32 - PIC32_ENET_SK_DM320004_INTERNAL_ETHERNET\Announce.o
 .comment       0x0000004d       0x4d Objects - TCPIP Demo App - C32 - PIC32_ENET_SK_DM320004_INTERNAL_ETHERNET\ARCFOUR.o
 .comment       0x0000009a       0x4d Objects - TCPIP Demo App - C32 - PIC32_ENET_SK_DM320004_INTERNAL_ETHERNET\ARP.o
 .comment       0x000000e7       0x4d Objects - TCPIP Demo App - C32 - PIC32_ENET_SK_DM320004_INTERNAL_ETHERNET\AutoIP.o
 .comment       0x00000134       0x4d Objects - TCPIP Demo App - C32 - PIC32_ENET_SK_DM320004_INTERNAL_ETHERNET\BerkeleyAPI.o
 .comment       0x00000181       0x4d Objects - TCPIP Demo App - C32 - PIC32_ENET_SK_DM320004_INTERNAL_ETHERNET\BigInt.o
 .comment       0x000001ce       0x4d Objects - TCPIP Demo App - C32 - PIC32_ENET_SK_DM320004_INTERNAL_ETHERNET\Delay.o
 .comment       0x0000021b       0x4d Objects - TCPIP Demo App - C32 - PIC32_ENET_SK_DM320004_INTERNAL_ETHERNET\DHCP.o
 .comment       0x00000268       0x4d Objects - TCPIP Demo App - C32 - PIC32_ENET_SK_DM320004_INTERNAL_ETHERNET\DHCPs.o
 .comment       0x000002b5       0x4d Objects - TCPIP Demo App - C32 - PIC32_ENET_SK_DM320004_INTERNAL_ETHERNET\DNS.o
 .comment       0x00000302       0x4d Objects - TCPIP Demo App - C32 - PIC32_ENET_SK_DM320004_INTERNAL_ETHERNET\DNSs.o
 .comment       0x0000034f       0x4d Objects - TCPIP Demo App - C32 - PIC32_ENET_SK_DM320004_INTERNAL_ETHERNET\DynDNS.o
 .comment       0x0000039c       0x4d Objects - TCPIP Demo App - C32 - PIC32_ENET_SK_DM320004_INTERNAL_ETHERNET\ENC28J60.o
 .comment       0x000003e9       0x4d Objects - TCPIP Demo App - C32 - PIC32_ENET_SK_DM320004_INTERNAL_ETHERNET\ENCX24J600.o
 .comment       0x00000436       0x4d Objects - TCPIP Demo App - C32 - PIC32_ENET_SK_DM320004_INTERNAL_ETHERNET\ETHPIC32ExtPhy.o
 .comment       0x00000483       0x4d Objects - TCPIP Demo App - C32 - PIC32_ENET_SK_DM320004_INTERNAL_ETHERNET\ETHPIC32ExtPhyDP83848.o
 .comment       0x000004d0       0x4d Objects - TCPIP Demo App - C32 - PIC32_ENET_SK_DM320004_INTERNAL_ETHERNET\ETHPIC32IntMac.o
 .comment       0x0000051d       0x4d Objects - TCPIP Demo App - C32 - PIC32_ENET_SK_DM320004_INTERNAL_ETHERNET\FileSystem.o
 .comment       0x0000056a       0x4d Objects - TCPIP Demo App - C32 - PIC32_ENET_SK_DM320004_INTERNAL_ETHERNET\FTP.o
 .comment       0x000005b7       0x4d Objects - TCPIP Demo App - C32 - PIC32_ENET_SK_DM320004_INTERNAL_ETHERNET\Hashes.o
 .comment       0x00000604       0x4d Objects - TCPIP Demo App - C32 - PIC32_ENET_SK_DM320004_INTERNAL_ETHERNET\Helpers.o
 .comment       0x00000651       0x4d Objects - TCPIP Demo App - C32 - PIC32_ENET_SK_DM320004_INTERNAL_ETHERNET\HTTP2.o
 .comment       0x0000069e       0x4d Objects - TCPIP Demo App - C32 - PIC32_ENET_SK_DM320004_INTERNAL_ETHERNET\HTTP.o
 .comment       0x000006eb       0x4d Objects - TCPIP Demo App - C32 - PIC32_ENET_SK_DM320004_INTERNAL_ETHERNET\ICMP.o
 .comment       0x00000738       0x4d Objects - TCPIP Demo App - C32 - PIC32_ENET_SK_DM320004_INTERNAL_ETHERNET\IP.o
 .comment       0x00000785       0x4d Objects - TCPIP Demo App - C32 - PIC32_ENET_SK_DM320004_INTERNAL_ETHERNET\LCDBlocking.o
 .comment       0x000007d2       0x4d Objects - TCPIP Demo App - C32 - PIC32_ENET_SK_DM320004_INTERNAL_ETHERNET\MPFS2.o
 .comment       0x0000081f       0x4d Objects - TCPIP Demo App - C32 - PIC32_ENET_SK_DM320004_INTERNAL_ETHERNET\MPFS.o
 .comment       0x0000086c       0x4d Objects - TCPIP Demo App - C32 - PIC32_ENET_SK_DM320004_INTERNAL_ETHERNET\NBNS.o
 .comment       0x000008b9       0x4d Objects - TCPIP Demo App - C32 - PIC32_ENET_SK_DM320004_INTERNAL_ETHERNET\Random.o
 .comment       0x00000906       0x4d Objects - TCPIP Demo App - C32 - PIC32_ENET_SK_DM320004_INTERNAL_ETHERNET\Reboot.o
 .comment       0x00000953       0x4d Objects - TCPIP Demo App - C32 - PIC32_ENET_SK_DM320004_INTERNAL_ETHERNET\RSA.o
 .comment       0x000009a0       0x4d Objects - TCPIP Demo App - C32 - PIC32_ENET_SK_DM320004_INTERNAL_ETHERNET\SMTP.o
 .comment       0x000009ed       0x4d Objects - TCPIP Demo App - C32 - PIC32_ENET_SK_DM320004_INTERNAL_ETHERNET\SNMP.o
 .comment       0x00000a3a       0x4d Objects - TCPIP Demo App - C32 - PIC32_ENET_SK_DM320004_INTERNAL_ETHERNET\SNMPv3.o
 .comment       0x00000a87       0x4d Objects - TCPIP Demo App - C32 - PIC32_ENET_SK_DM320004_INTERNAL_ETHERNET\SNMPv3USM.o
 .comment       0x00000ad4       0x4d Objects - TCPIP Demo App - C32 - PIC32_ENET_SK_DM320004_INTERNAL_ETHERNET\SNTP.o
 .comment       0x00000b21       0x4d Objects - TCPIP Demo App - C32 - PIC32_ENET_SK_DM320004_INTERNAL_ETHERNET\SPIEEPROM.o
 .comment       0x00000b6e       0x4d Objects - TCPIP Demo App - C32 - PIC32_ENET_SK_DM320004_INTERNAL_ETHERNET\SPIFlash.o
 .comment       0x00000bbb       0x4d Objects - TCPIP Demo App - C32 - PIC32_ENET_SK_DM320004_INTERNAL_ETHERNET\SPIRAM.o
 .comment       0x00000c08       0x4d Objects - TCPIP Demo App - C32 - PIC32_ENET_SK_DM320004_INTERNAL_ETHERNET\SSL.o
 .comment       0x00000c55       0x4d Objects - TCPIP Demo App - C32 - PIC32_ENET_SK_DM320004_INTERNAL_ETHERNET\StackTsk.o
 .comment       0x00000ca2       0x4d Objects - TCPIP Demo App - C32 - PIC32_ENET_SK_DM320004_INTERNAL_ETHERNET\TCP.o
 .comment       0x00000cef       0x4d Objects - TCPIP Demo App - C32 - PIC32_ENET_SK_DM320004_INTERNAL_ETHERNET\TCPPerformanceTest.o
 .comment       0x00000d3c       0x4d Objects - TCPIP Demo App - C32 - PIC32_ENET_SK_DM320004_INTERNAL_ETHERNET\Telnet.o
 .comment       0x00000d89       0x4d Objects - TCPIP Demo App - C32 - PIC32_ENET_SK_DM320004_INTERNAL_ETHERNET\TFTPc.o
 .comment       0x00000dd6       0x4d Objects - TCPIP Demo App - C32 - PIC32_ENET_SK_DM320004_INTERNAL_ETHERNET\Tick.o
 .comment       0x00000e23       0x4d Objects - TCPIP Demo App - C32 - PIC32_ENET_SK_DM320004_INTERNAL_ETHERNET\UART2TCPBridge.o
 .comment       0x00000e70       0x4d Objects - TCPIP Demo App - C32 - PIC32_ENET_SK_DM320004_INTERNAL_ETHERNET\UART.o
 .comment       0x00000ebd       0x4d Objects - TCPIP Demo App - C32 - PIC32_ENET_SK_DM320004_INTERNAL_ETHERNET\UDP.o
 .comment       0x00000f0a       0x4d Objects - TCPIP Demo App - C32 - PIC32_ENET_SK_DM320004_INTERNAL_ETHERNET\UDPPerformanceTest.o
 .comment       0x00000f57       0x4d Objects - TCPIP Demo App - C32 - PIC32_ENET_SK_DM320004_INTERNAL_ETHERNET\ZeroconfHelper.o
 .comment       0x00000fa4       0x4d Objects - TCPIP Demo App - C32 - PIC32_ENET_SK_DM320004_INTERNAL_ETHERNET\ZeroconfLinkLocal.o
 .comment       0x00000ff1       0x4d Objects - TCPIP Demo App - C32 - PIC32_ENET_SK_DM320004_INTERNAL_ETHERNET\ZeroconfMulticastDNS.o
 .comment       0x0000103e       0x4d Objects - TCPIP Demo App - C32 - PIC32_ENET_SK_DM320004_INTERNAL_ETHERNET\CustomHTTPApp.o
 .comment       0x0000108b       0x4d Objects - TCPIP Demo App - C32 - PIC32_ENET_SK_DM320004_INTERNAL_ETHERNET\CustomSNMPApp.o
 .comment       0x000010d8       0x4d Objects - TCPIP Demo App - C32 - PIC32_ENET_SK_DM320004_INTERNAL_ETHERNET\CustomSSLCert.o
 .comment       0x00001125       0x4d Objects - TCPIP Demo App - C32 - PIC32_ENET_SK_DM320004_INTERNAL_ETHERNET\MainDemo.o
 .comment       0x00001172       0x4d Objects - TCPIP Demo App - C32 - PIC32_ENET_SK_DM320004_INTERNAL_ETHERNET\BerkeleyTCPClientDemo.o
 .comment       0x000011bf       0x4d Objects - TCPIP Demo App - C32 - PIC32_ENET_SK_DM320004_INTERNAL_ETHERNET\BerkeleyTCPServerDemo.o
 .comment       0x0000120c       0x4d Objects - TCPIP Demo App - C32 - PIC32_ENET_SK_DM320004_INTERNAL_ETHERNET\BerkeleyUDPClientDemo.o
 .comment       0x00001259       0x4d Objects - TCPIP Demo App - C32 - PIC32_ENET_SK_DM320004_INTERNAL_ETHERNET\GenericTCPClient.o
 .comment       0x000012a6       0x4d Objects - TCPIP Demo App - C32 - PIC32_ENET_SK_DM320004_INTERNAL_ETHERNET\GenericTCPServer.o
 .comment       0x000012f3       0x4d Objects - TCPIP Demo App - C32 - PIC32_ENET_SK_DM320004_INTERNAL_ETHERNET\LegacyHTTPApp.o
 .comment       0x00001340       0x4d Objects - TCPIP Demo App - C32 - PIC32_ENET_SK_DM320004_INTERNAL_ETHERNET\PingDemo.o
 .comment       0x0000138d       0x4d Objects - TCPIP Demo App - C32 - PIC32_ENET_SK_DM320004_INTERNAL_ETHERNET\SMTPDemo.o
 .comment       0x000013da       0x4d Objects - TCPIP Demo App - C32 - PIC32_ENET_SK_DM320004_INTERNAL_ETHERNET\UARTConfig.o
 .comment       0x00001427       0x4d Objects - TCPIP Demo App - C32 - PIC32_ENET_SK_DM320004_INTERNAL_ETHERNET\MPFSImg2.o
 .comment       0x00001474       0x4d Objects - TCPIP Demo App - C32 - PIC32_ENET_SK_DM320004_INTERNAL_ETHERNET\MPFSImg.o
 .comment       0x000014c1       0x4d C:/Program Files (x86)/Microchip/MPLAB C32 Suite/bin/../lib/gcc/pic32mx/3.4.4/size\libgcc.a(_udivdi3.o)
 .comment       0x0000150e       0x56 C:/Program Files (x86)/Microchip/MPLAB C32 Suite/bin/../lib/gcc/pic32mx/3.4.4/../../../../pic32mx/lib/size\libc.a(memcmp.o)
 .comment       0x00001564       0x56 C:/Program Files (x86)/Microchip/MPLAB C32 Suite/bin/../lib/gcc/pic32mx/3.4.4/../../../../pic32mx/lib/size\libc.a(memset.o)
 .comment       0x000015ba       0x56 C:/Program Files (x86)/Microchip/MPLAB C32 Suite/bin/../lib/gcc/pic32mx/3.4.4/../../../../pic32mx/lib/size\libc.a(strcmp.o)
 .comment       0x00001610       0x56 C:/Program Files (x86)/Microchip/MPLAB C32 Suite/bin/../lib/gcc/pic32mx/3.4.4/../../../../pic32mx/lib/size\libc.a(strcpy.o)
 .comment       0x00001666       0x56 C:/Program Files (x86)/Microchip/MPLAB C32 Suite/bin/../lib/gcc/pic32mx/3.4.4/../../../../pic32mx/lib/size\libc.a(strlen.o)
 .comment       0x000016bc       0x4d C:/Program Files (x86)/Microchip/MPLAB C32 Suite/bin/../lib/gcc/pic32mx/3.4.4/../../../../pic32mx/lib/size\libc.a(atoi.o)
 .comment       0x00001709       0x4d C:/Program Files (x86)/Microchip/MPLAB C32 Suite/bin/../lib/gcc/pic32mx/3.4.4/../../../../pic32mx/lib/size\libc.a(atol.o)
 .comment       0x00001756       0x4d C:/Program Files (x86)/Microchip/MPLAB C32 Suite/bin/../lib/gcc/pic32mx/3.4.4/../../../../pic32mx/lib/size\libc.a(calloc.o)
 .comment       0x000017a3       0x9b C:/Program Files (x86)/Microchip/MPLAB C32 Suite/bin/../lib/gcc/pic32mx/3.4.4/../../../../pic32mx/lib/size\libc.a(ctype.o)
 .comment       0x0000183e       0x4d C:/Program Files (x86)/Microchip/MPLAB C32 Suite/bin/../lib/gcc/pic32mx/3.4.4/../../../../pic32mx/lib/size\libc.a(malloc.o)
 .comment       0x0000188b       0x4d C:/Program Files (x86)/Microchip/MPLAB C32 Suite/bin/../lib/gcc/pic32mx/3.4.4/../../../../pic32mx/lib/size\libc.a(strchr.o)
 .comment       0x000018d8       0x4d C:/Program Files (x86)/Microchip/MPLAB C32 Suite/bin/../lib/gcc/pic32mx/3.4.4/../../../../pic32mx/lib/size\libc.a(strstr.o)
 .comment       0x00001925       0x98 C:/Program Files (x86)/Microchip/MPLAB C32 Suite/bin/../lib/gcc/pic32mx/3.4.4/../../../../pic32mx/lib/size\libc.a(sbrk.o)
 .comment       0x000019bd       0x4d C:/Program Files (x86)/Microchip/MPLAB C32 Suite/bin/../lib/gcc/pic32mx/3.4.4/../../../../pic32mx/lib/size\libc.a(default-bootstrap-exception-handler.o)
 .comment       0x00001a0a       0x4d C:/Program Files (x86)/Microchip/MPLAB C32 Suite/bin/../lib/gcc/pic32mx/3.4.4/../../../../pic32mx/lib/size\libc.a(default-on-reset.o)
 .comment       0x00001a57       0x4d C:/Program Files (x86)/Microchip/MPLAB C32 Suite/bin/../lib/gcc/pic32mx/3.4.4/../../../../pic32mx/lib/size\libc.a(default-on-bootstrap.o)
 .comment       0x00001aa4       0x4d C:/Program Files (x86)/Microchip/MPLAB C32 Suite/bin/../lib/gcc/pic32mx/3.4.4/../../../../pic32mx/lib/size\libc.a(errno.o)
 .comment       0x00001af1       0x4d C:/Program Files (x86)/Microchip/MPLAB C32 Suite/bin/../lib/gcc/pic32mx/3.4.4/../../../../pic32mx/lib/size\libc.a(strncmp.o)
 .comment       0x00001b3e       0x4d C:/Program Files (x86)/Microchip/MPLAB C32 Suite/bin/../lib/gcc/pic32mx/3.4.4/../../../../pic32mx/lib/size\libmchp_peripheral.a(read_core_timer_lib.o)
 .comment       0x00001b8b       0x4d C:/Program Files (x86)/Microchip/MPLAB C32 Suite/bin/../lib/gcc/pic32mx/3.4.4/../../../../pic32mx/lib/size\libmchp_peripheral_32MX795F512L.a(eth_ack_packet_lib.o)
 .comment       0x00001bd8       0x4d C:/Program Files (x86)/Microchip/MPLAB C32 Suite/bin/../lib/gcc/pic32mx/3.4.4/../../../../pic32mx/lib/size\libmchp_peripheral_32MX795F512L.a(eth_descriptors_add_lib.o)
 .comment       0x00001c25       0x4d C:/Program Files (x86)/Microchip/MPLAB C32 Suite/bin/../lib/gcc/pic32mx/3.4.4/../../../../pic32mx/lib/size\libmchp_peripheral_32MX795F512L.a(eth_init_lib.o)
 .comment       0x00001c72       0x4d C:/Program Files (x86)/Microchip/MPLAB C32 Suite/bin/../lib/gcc/pic32mx/3.4.4/../../../../pic32mx/lib/size\libmchp_peripheral_32MX795F512L.a(eth_mac_open_lib.o)
 .comment       0x00001cbf       0x4d C:/Program Files (x86)/Microchip/MPLAB C32 Suite/bin/../lib/gcc/pic32mx/3.4.4/../../../../pic32mx/lib/size\libmchp_peripheral_32MX795F512L.a(eth_mac_set_address_max_lib.o)
 .comment       0x00001d0c       0x4d C:/Program Files (x86)/Microchip/MPLAB C32 Suite/bin/../lib/gcc/pic32mx/3.4.4/../../../../pic32mx/lib/size\libmchp_peripheral_32MX795F512L.a(eth_rx_buffers_append_lib.o)
 .comment       0x00001d59       0x4d C:/Program Files (x86)/Microchip/MPLAB C32 Suite/bin/../lib/gcc/pic32mx/3.4.4/../../../../pic32mx/lib/size\libmchp_peripheral_32MX795F512L.a(eth_rx_filters_lib.o)
 .comment       0x00001da6       0x4d C:/Program Files (x86)/Microchip/MPLAB C32 Suite/bin/../lib/gcc/pic32mx/3.4.4/../../../../pic32mx/lib/size\libmchp_peripheral_32MX795F512L.a(eth_rx_get_packet_lib.o)
 .comment       0x00001df3       0x4d C:/Program Files (x86)/Microchip/MPLAB C32 Suite/bin/../lib/gcc/pic32mx/3.4.4/../../../../pic32mx/lib/size\libmchp_peripheral_32MX795F512L.a(eth_rx_set_buffer_size_lib.o)
 .comment       0x00001e40       0x4d C:/Program Files (x86)/Microchip/MPLAB C32 Suite/bin/../lib/gcc/pic32mx/3.4.4/../../../../pic32mx/lib/size\libmchp_peripheral_32MX795F512L.a(eth_tx_packet_lib.o)
 .comment       0x00001e8d       0x4d C:/Program Files (x86)/Microchip/MPLAB C32 Suite/bin/../lib/gcc/pic32mx/3.4.4/../../../../pic32mx/lib/size\libmchp_peripheral_32MX795F512L.a(_eth_append_busy_list_lib.o)
 .comment       0x00001eda       0x4d C:/Program Files (x86)/Microchip/MPLAB C32 Suite/bin/../lib/gcc/pic32mx/3.4.4/../../../../pic32mx/lib/size\libmchp_peripheral_32MX795F512L.a(eth_miim_access.o)
 .comment       0x00001f27       0x4d C:/Program Files (x86)/Microchip/MPLAB C32 Suite/bin/../lib/gcc/pic32mx/3.4.4/../../../../pic32mx/lib/size\libmchp_peripheral_32MX795F512L.a(soft_reset_lib.o)
 .comment       0x00001f74       0x4d C:/Program Files (x86)/Microchip/MPLAB C32 Suite/bin/../lib/gcc/pic32mx/3.4.4/../../../../pic32mx/lib/size\libmchp_peripheral_32MX795F512L.a(pcache.o)
 .comment       0x00001fc1       0x4d C:/Program Files (x86)/Microchip/MPLAB C32 Suite/bin/../lib/gcc/pic32mx/3.4.4/../../../../pic32mx/lib/size\libmchp_peripheral_32MX795F512L.a(int_disable_interrupts_lib.o)
 .comment       0x0000200e       0x4d C:/Program Files (x86)/Microchip/MPLAB C32 Suite/bin/../lib/gcc/pic32mx/3.4.4/../../../../pic32mx/lib/size\libmchp_peripheral_32MX795F512L.a(int_restore_interrupts_lib.o)
 .comment       0x0000205b       0x4d C:/Program Files (x86)/Microchip/MPLAB C32 Suite/bin/../lib/gcc/pic32mx/3.4.4/../../../../pic32mx/lib/size\libmchp_peripheral_32MX795F512L.a(int_enable_mv_int_lib.o)
 .comment       0x000020a8       0x4d C:/Program Files (x86)/Microchip/MPLAB C32 Suite/bin/../lib/gcc/pic32mx/3.4.4/../../../../pic32mx/lib/size\libmchp_peripheral_32MX795F512L.a(int_tbl_lib.o)
 .comment       0x000020f5       0x4d C:/Program Files (x86)/Microchip/MPLAB C32 Suite/bin/../lib/gcc/pic32mx/3.4.4/../../../../pic32mx/lib/size\libmchp_peripheral_32MX795F512L.a(port_set_pins_digital_in_lib.o)
 .comment       0x00002142       0x4d C:/Program Files (x86)/Microchip/MPLAB C32 Suite/bin/../lib/gcc/pic32mx/3.4.4/../../../../pic32mx/lib/size\libmchp_peripheral_32MX795F512L.a(port_set_pins_digital_out_lib.o)
 .comment       0x0000218f       0x4d C:/Program Files (x86)/Microchip/MPLAB C32 Suite/bin/../lib/gcc/pic32mx/3.4.4/../../../../pic32mx/lib/size\libmchp_peripheral_32MX795F512L.a(_ports_tbl_libp.o)
 .comment       0x000021dc       0x4d C:/Program Files (x86)/Microchip/MPLAB C32 Suite/bin/../lib/gcc/pic32mx/3.4.4/../../../../pic32mx/lib/size\libmchp_peripheral_32MX795F512L.a(int_enable_interrupts_lib.o)

.debug
 *(.debug)

.line
 *(.line)

.debug_srcinfo
 *(.debug_srcinfo)

.debug_sfnames
 *(.debug_sfnames)

.debug_aranges  0x00000000      0xaa0
 *(.debug_aranges)
 .debug_aranges
                0x00000000       0x20 Objects - TCPIP Demo App - C32 - PIC32_ENET_SK_DM320004_INTERNAL_ETHERNET\Announce.o
 .debug_aranges
                0x00000020       0x20 Objects - TCPIP Demo App - C32 - PIC32_ENET_SK_DM320004_INTERNAL_ETHERNET\ARP.o
 .debug_aranges
                0x00000040       0x20 Objects - TCPIP Demo App - C32 - PIC32_ENET_SK_DM320004_INTERNAL_ETHERNET\BerkeleyAPI.o
 .debug_aranges
                0x00000060       0x20 Objects - TCPIP Demo App - C32 - PIC32_ENET_SK_DM320004_INTERNAL_ETHERNET\Delay.o
 .debug_aranges
                0x00000080       0x20 Objects - TCPIP Demo App - C32 - PIC32_ENET_SK_DM320004_INTERNAL_ETHERNET\DNS.o
 .debug_aranges
                0x000000a0       0x20 Objects - TCPIP Demo App - C32 - PIC32_ENET_SK_DM320004_INTERNAL_ETHERNET\DynDNS.o
 .debug_aranges
                0x000000c0       0x20 Objects - TCPIP Demo App - C32 - PIC32_ENET_SK_DM320004_INTERNAL_ETHERNET\ETHPIC32ExtPhy.o
 .debug_aranges
                0x000000e0       0x20 Objects - TCPIP Demo App - C32 - PIC32_ENET_SK_DM320004_INTERNAL_ETHERNET\ETHPIC32ExtPhyDP83848.o
 .debug_aranges
                0x00000100       0x20 Objects - TCPIP Demo App - C32 - PIC32_ENET_SK_DM320004_INTERNAL_ETHERNET\ETHPIC32IntMac.o
 .debug_aranges
                0x00000120       0x20 Objects - TCPIP Demo App - C32 - PIC32_ENET_SK_DM320004_INTERNAL_ETHERNET\Hashes.o
 .debug_aranges
                0x00000140       0x20 Objects - TCPIP Demo App - C32 - PIC32_ENET_SK_DM320004_INTERNAL_ETHERNET\Helpers.o
 .debug_aranges
                0x00000160       0x20 Objects - TCPIP Demo App - C32 - PIC32_ENET_SK_DM320004_INTERNAL_ETHERNET\HTTP2.o
 .debug_aranges
                0x00000180       0x20 Objects - TCPIP Demo App - C32 - PIC32_ENET_SK_DM320004_INTERNAL_ETHERNET\ICMP.o
 .debug_aranges
                0x000001a0       0x20 Objects - TCPIP Demo App - C32 - PIC32_ENET_SK_DM320004_INTERNAL_ETHERNET\IP.o
 .debug_aranges
                0x000001c0       0x20 Objects - TCPIP Demo App - C32 - PIC32_ENET_SK_DM320004_INTERNAL_ETHERNET\MPFS2.o
 .debug_aranges
                0x000001e0       0x20 Objects - TCPIP Demo App - C32 - PIC32_ENET_SK_DM320004_INTERNAL_ETHERNET\NBNS.o
 .debug_aranges
                0x00000200       0x20 Objects - TCPIP Demo App - C32 - PIC32_ENET_SK_DM320004_INTERNAL_ETHERNET\Reboot.o
 .debug_aranges
                0x00000220       0x20 Objects - TCPIP Demo App - C32 - PIC32_ENET_SK_DM320004_INTERNAL_ETHERNET\SMTP.o
 .debug_aranges
                0x00000240       0x20 Objects - TCPIP Demo App - C32 - PIC32_ENET_SK_DM320004_INTERNAL_ETHERNET\SNTP.o
 .debug_aranges
                0x00000260       0x20 Objects - TCPIP Demo App - C32 - PIC32_ENET_SK_DM320004_INTERNAL_ETHERNET\StackTsk.o
 .debug_aranges
                0x00000280       0x20 Objects - TCPIP Demo App - C32 - PIC32_ENET_SK_DM320004_INTERNAL_ETHERNET\TCP.o
 .debug_aranges
                0x000002a0       0x20 Objects - TCPIP Demo App - C32 - PIC32_ENET_SK_DM320004_INTERNAL_ETHERNET\TCPPerformanceTest.o
 .debug_aranges
                0x000002c0       0x20 Objects - TCPIP Demo App - C32 - PIC32_ENET_SK_DM320004_INTERNAL_ETHERNET\Telnet.o
 .debug_aranges
                0x000002e0       0x20 Objects - TCPIP Demo App - C32 - PIC32_ENET_SK_DM320004_INTERNAL_ETHERNET\Tick.o
 .debug_aranges
                0x00000300       0x20 Objects - TCPIP Demo App - C32 - PIC32_ENET_SK_DM320004_INTERNAL_ETHERNET\UDP.o
 .debug_aranges
                0x00000320       0x20 Objects - TCPIP Demo App - C32 - PIC32_ENET_SK_DM320004_INTERNAL_ETHERNET\CustomHTTPApp.o
 .debug_aranges
                0x00000340       0x20 Objects - TCPIP Demo App - C32 - PIC32_ENET_SK_DM320004_INTERNAL_ETHERNET\MainDemo.o
 .debug_aranges
                0x00000360       0x20 Objects - TCPIP Demo App - C32 - PIC32_ENET_SK_DM320004_INTERNAL_ETHERNET\BerkeleyTCPClientDemo.o
 .debug_aranges
                0x00000380       0x20 Objects - TCPIP Demo App - C32 - PIC32_ENET_SK_DM320004_INTERNAL_ETHERNET\BerkeleyTCPServerDemo.o
 .debug_aranges
                0x000003a0       0x20 Objects - TCPIP Demo App - C32 - PIC32_ENET_SK_DM320004_INTERNAL_ETHERNET\BerkeleyUDPClientDemo.o
 .debug_aranges
                0x000003c0       0x20 Objects - TCPIP Demo App - C32 - PIC32_ENET_SK_DM320004_INTERNAL_ETHERNET\GenericTCPClient.o
 .debug_aranges
                0x000003e0       0x20 Objects - TCPIP Demo App - C32 - PIC32_ENET_SK_DM320004_INTERNAL_ETHERNET\GenericTCPServer.o
 .debug_aranges
                0x00000400       0x20 Objects - TCPIP Demo App - C32 - PIC32_ENET_SK_DM320004_INTERNAL_ETHERNET\PingDemo.o
 .debug_aranges
                0x00000420       0x20 Objects - TCPIP Demo App - C32 - PIC32_ENET_SK_DM320004_INTERNAL_ETHERNET\SMTPDemo.o
 .debug_aranges
                0x00000440       0x28 C:/Program Files (x86)/Microchip/MPLAB C32 Suite/bin/../lib/gcc/pic32mx/3.4.4/../../../../pic32mx/lib/size\libc.a(atoi.o)
 .debug_aranges
                0x00000468       0x28 C:/Program Files (x86)/Microchip/MPLAB C32 Suite/bin/../lib/gcc/pic32mx/3.4.4/../../../../pic32mx/lib/size\libc.a(atol.o)
 .debug_aranges
                0x00000490       0x28 C:/Program Files (x86)/Microchip/MPLAB C32 Suite/bin/../lib/gcc/pic32mx/3.4.4/../../../../pic32mx/lib/size\libc.a(calloc.o)
 .debug_aranges
                0x000004b8       0x38 C:/Program Files (x86)/Microchip/MPLAB C32 Suite/bin/../lib/gcc/pic32mx/3.4.4/../../../../pic32mx/lib/size\libc.a(malloc.o)
 .debug_aranges
                0x000004f0       0x28 C:/Program Files (x86)/Microchip/MPLAB C32 Suite/bin/../lib/gcc/pic32mx/3.4.4/../../../../pic32mx/lib/size\libc.a(strchr.o)
 .debug_aranges
                0x00000518       0x28 C:/Program Files (x86)/Microchip/MPLAB C32 Suite/bin/../lib/gcc/pic32mx/3.4.4/../../../../pic32mx/lib/size\libc.a(strstr.o)
 .debug_aranges
                0x00000540       0x48 C:/Program Files (x86)/Microchip/MPLAB C32 Suite/bin/../lib/gcc/pic32mx/3.4.4/../../../../pic32mx/lib/size\libc.a(sbrk.o)
 .debug_aranges
                0x00000588       0x28 C:/Program Files (x86)/Microchip/MPLAB C32 Suite/bin/../lib/gcc/pic32mx/3.4.4/../../../../pic32mx/lib/size\libc.a(default-bootstrap-exception-handler.o)
 .debug_aranges
                0x000005b0       0x28 C:/Program Files (x86)/Microchip/MPLAB C32 Suite/bin/../lib/gcc/pic32mx/3.4.4/../../../../pic32mx/lib/size\libc.a(default-on-reset.o)
 .debug_aranges
                0x000005d8       0x28 C:/Program Files (x86)/Microchip/MPLAB C32 Suite/bin/../lib/gcc/pic32mx/3.4.4/../../../../pic32mx/lib/size\libc.a(default-on-bootstrap.o)
 .debug_aranges
                0x00000600       0x28 C:/Program Files (x86)/Microchip/MPLAB C32 Suite/bin/../lib/gcc/pic32mx/3.4.4/../../../../pic32mx/lib/size\libc.a(strncmp.o)
 .debug_aranges
                0x00000628       0x28 C:/Program Files (x86)/Microchip/MPLAB C32 Suite/bin/../lib/gcc/pic32mx/3.4.4/../../../../pic32mx/lib/size\libmchp_peripheral.a(read_core_timer_lib.o)
 .debug_aranges
                0x00000650       0x50 C:/Program Files (x86)/Microchip/MPLAB C32 Suite/bin/../lib/gcc/pic32mx/3.4.4/../../../../pic32mx/lib/size\libmchp_peripheral_32MX795F512L.a(eth_ack_packet_lib.o)
 .debug_aranges
                0x000006a0       0x30 C:/Program Files (x86)/Microchip/MPLAB C32 Suite/bin/../lib/gcc/pic32mx/3.4.4/../../../../pic32mx/lib/size\libmchp_peripheral_32MX795F512L.a(eth_descriptors_add_lib.o)
 .debug_aranges
                0x000006d0       0x28 C:/Program Files (x86)/Microchip/MPLAB C32 Suite/bin/../lib/gcc/pic32mx/3.4.4/../../../../pic32mx/lib/size\libmchp_peripheral_32MX795F512L.a(eth_init_lib.o)
 .debug_aranges
                0x000006f8       0x28 C:/Program Files (x86)/Microchip/MPLAB C32 Suite/bin/../lib/gcc/pic32mx/3.4.4/../../../../pic32mx/lib/size\libmchp_peripheral_32MX795F512L.a(eth_mac_open_lib.o)
 .debug_aranges
                0x00000720       0x38 C:/Program Files (x86)/Microchip/MPLAB C32 Suite/bin/../lib/gcc/pic32mx/3.4.4/../../../../pic32mx/lib/size\libmchp_peripheral_32MX795F512L.a(eth_mac_set_address_max_lib.o)
 .debug_aranges
                0x00000758       0x28 C:/Program Files (x86)/Microchip/MPLAB C32 Suite/bin/../lib/gcc/pic32mx/3.4.4/../../../../pic32mx/lib/size\libmchp_peripheral_32MX795F512L.a(eth_rx_buffers_append_lib.o)
 .debug_aranges
                0x00000780       0x50 C:/Program Files (x86)/Microchip/MPLAB C32 Suite/bin/../lib/gcc/pic32mx/3.4.4/../../../../pic32mx/lib/size\libmchp_peripheral_32MX795F512L.a(eth_rx_filters_lib.o)
 .debug_aranges
                0x000007d0       0x30 C:/Program Files (x86)/Microchip/MPLAB C32 Suite/bin/../lib/gcc/pic32mx/3.4.4/../../../../pic32mx/lib/size\libmchp_peripheral_32MX795F512L.a(eth_rx_get_packet_lib.o)
 .debug_aranges
                0x00000800       0x28 C:/Program Files (x86)/Microchip/MPLAB C32 Suite/bin/../lib/gcc/pic32mx/3.4.4/../../../../pic32mx/lib/size\libmchp_peripheral_32MX795F512L.a(eth_rx_set_buffer_size_lib.o)
 .debug_aranges
                0x00000828       0x50 C:/Program Files (x86)/Microchip/MPLAB C32 Suite/bin/../lib/gcc/pic32mx/3.4.4/../../../../pic32mx/lib/size\libmchp_peripheral_32MX795F512L.a(eth_tx_packet_lib.o)
 .debug_aranges
                0x00000878       0x28 C:/Program Files (x86)/Microchip/MPLAB C32 Suite/bin/../lib/gcc/pic32mx/3.4.4/../../../../pic32mx/lib/size\libmchp_peripheral_32MX795F512L.a(_eth_append_busy_list_lib.o)
 .debug_aranges
                0x000008a0       0x50 C:/Program Files (x86)/Microchip/MPLAB C32 Suite/bin/../lib/gcc/pic32mx/3.4.4/../../../../pic32mx/lib/size\libmchp_peripheral_32MX795F512L.a(eth_miim_access.o)
 .debug_aranges
                0x000008f0       0x28 C:/Program Files (x86)/Microchip/MPLAB C32 Suite/bin/../lib/gcc/pic32mx/3.4.4/../../../../pic32mx/lib/size\libmchp_peripheral_32MX795F512L.a(soft_reset_lib.o)
 .debug_aranges
                0x00000918       0x30 C:/Program Files (x86)/Microchip/MPLAB C32 Suite/bin/../lib/gcc/pic32mx/3.4.4/../../../../pic32mx/lib/size\libmchp_peripheral_32MX795F512L.a(pcache.o)
 .debug_aranges
                0x00000948       0x28 C:/Program Files (x86)/Microchip/MPLAB C32 Suite/bin/../lib/gcc/pic32mx/3.4.4/../../../../pic32mx/lib/size\libmchp_peripheral_32MX795F512L.a(int_disable_interrupts_lib.o)
 .debug_aranges
                0x00000970       0x28 C:/Program Files (x86)/Microchip/MPLAB C32 Suite/bin/../lib/gcc/pic32mx/3.4.4/../../../../pic32mx/lib/size\libmchp_peripheral_32MX795F512L.a(int_restore_interrupts_lib.o)
 .debug_aranges
                0x00000998       0x28 C:/Program Files (x86)/Microchip/MPLAB C32 Suite/bin/../lib/gcc/pic32mx/3.4.4/../../../../pic32mx/lib/size\libmchp_peripheral_32MX795F512L.a(int_enable_mv_int_lib.o)
 .debug_aranges
                0x000009c0       0x68 C:/Program Files (x86)/Microchip/MPLAB C32 Suite/bin/../lib/gcc/pic32mx/3.4.4/../../../../pic32mx/lib/size\libmchp_peripheral_32MX795F512L.a(int_tbl_lib.o)
 .debug_aranges
                0x00000a28       0x28 C:/Program Files (x86)/Microchip/MPLAB C32 Suite/bin/../lib/gcc/pic32mx/3.4.4/../../../../pic32mx/lib/size\libmchp_peripheral_32MX795F512L.a(port_set_pins_digital_in_lib.o)
 .debug_aranges
                0x00000a50       0x28 C:/Program Files (x86)/Microchip/MPLAB C32 Suite/bin/../lib/gcc/pic32mx/3.4.4/../../../../pic32mx/lib/size\libmchp_peripheral_32MX795F512L.a(port_set_pins_digital_out_lib.o)
 .debug_aranges
                0x00000a78       0x28 C:/Program Files (x86)/Microchip/MPLAB C32 Suite/bin/../lib/gcc/pic32mx/3.4.4/../../../../pic32mx/lib/size\libmchp_peripheral_32MX795F512L.a(int_enable_interrupts_lib.o)

.debug_pubnames
                0x00000000     0x1d1c
 *(.debug_pubnames)
 .debug_pubnames
                0x00000000       0x33 Objects - TCPIP Demo App - C32 - PIC32_ENET_SK_DM320004_INTERNAL_ETHERNET\Announce.o
 .debug_pubnames
                0x00000033       0x60 Objects - TCPIP Demo App - C32 - PIC32_ENET_SK_DM320004_INTERNAL_ETHERNET\ARP.o
 .debug_pubnames
                0x00000093       0xa9 Objects - TCPIP Demo App - C32 - PIC32_ENET_SK_DM320004_INTERNAL_ETHERNET\BerkeleyAPI.o
 .debug_pubnames
                0x0000013c       0x2c Objects - TCPIP Demo App - C32 - PIC32_ENET_SK_DM320004_INTERNAL_ETHERNET\Delay.o
 .debug_pubnames
                0x00000168       0x55 Objects - TCPIP Demo App - C32 - PIC32_ENET_SK_DM320004_INTERNAL_ETHERNET\DNS.o
 .debug_pubnames
                0x000001bd       0x9f Objects - TCPIP Demo App - C32 - PIC32_ENET_SK_DM320004_INTERNAL_ETHERNET\DynDNS.o
 .debug_pubnames
                0x0000025c      0x110 Objects - TCPIP Demo App - C32 - PIC32_ENET_SK_DM320004_INTERNAL_ETHERNET\ETHPIC32ExtPhy.o
 .debug_pubnames
                0x0000036c       0x6b Objects - TCPIP Demo App - C32 - PIC32_ENET_SK_DM320004_INTERNAL_ETHERNET\ETHPIC32ExtPhyDP83848.o
 .debug_pubnames
                0x000003d7      0x213 Objects - TCPIP Demo App - C32 - PIC32_ENET_SK_DM320004_INTERNAL_ETHERNET\ETHPIC32IntMac.o
 .debug_pubnames
                0x000005ea       0x62 Objects - TCPIP Demo App - C32 - PIC32_ENET_SK_DM320004_INTERNAL_ETHERNET\Hashes.o
 .debug_pubnames
                0x0000064c      0x12c Objects - TCPIP Demo App - C32 - PIC32_ENET_SK_DM320004_INTERNAL_ETHERNET\Helpers.o
 .debug_pubnames
                0x00000778       0xcf Objects - TCPIP Demo App - C32 - PIC32_ENET_SK_DM320004_INTERNAL_ETHERNET\HTTP2.o
 .debug_pubnames
                0x00000847       0x7f Objects - TCPIP Demo App - C32 - PIC32_ENET_SK_DM320004_INTERNAL_ETHERNET\ICMP.o
 .debug_pubnames
                0x000008c6       0x44 Objects - TCPIP Demo App - C32 - PIC32_ENET_SK_DM320004_INTERNAL_ETHERNET\IP.o
 .debug_pubnames
                0x0000090a      0x140 Objects - TCPIP Demo App - C32 - PIC32_ENET_SK_DM320004_INTERNAL_ETHERNET\MPFS2.o
 .debug_pubnames
                0x00000a4a       0x1f Objects - TCPIP Demo App - C32 - PIC32_ENET_SK_DM320004_INTERNAL_ETHERNET\NBNS.o
 .debug_pubnames
                0x00000a69       0x21 Objects - TCPIP Demo App - C32 - PIC32_ENET_SK_DM320004_INTERNAL_ETHERNET\Reboot.o
 .debug_pubnames
                0x00000a8a       0xd2 Objects - TCPIP Demo App - C32 - PIC32_ENET_SK_DM320004_INTERNAL_ETHERNET\SMTP.o
 .debug_pubnames
                0x00000b5c       0x37 Objects - TCPIP Demo App - C32 - PIC32_ENET_SK_DM320004_INTERNAL_ETHERNET\SNTP.o
 .debug_pubnames
                0x00000b93       0x53 Objects - TCPIP Demo App - C32 - PIC32_ENET_SK_DM320004_INTERNAL_ETHERNET\StackTsk.o
 .debug_pubnames
                0x00000be6      0x1ba Objects - TCPIP Demo App - C32 - PIC32_ENET_SK_DM320004_INTERNAL_ETHERNET\TCP.o
 .debug_pubnames
                0x00000da0       0x5b Objects - TCPIP Demo App - C32 - PIC32_ENET_SK_DM320004_INTERNAL_ETHERNET\TCPPerformanceTest.o
 .debug_pubnames
                0x00000dfb       0x21 Objects - TCPIP Demo App - C32 - PIC32_ENET_SK_DM320004_INTERNAL_ETHERNET\Telnet.o
 .debug_pubnames
                0x00000e1c       0x7e Objects - TCPIP Demo App - C32 - PIC32_ENET_SK_DM320004_INTERNAL_ETHERNET\Tick.o
 .debug_pubnames
                0x00000e9a      0x143 Objects - TCPIP Demo App - C32 - PIC32_ENET_SK_DM320004_INTERNAL_ETHERNET\UDP.o
 .debug_pubnames
                0x00000fdd      0x3a2 Objects - TCPIP Demo App - C32 - PIC32_ENET_SK_DM320004_INTERNAL_ETHERNET\CustomHTTPApp.o
 .debug_pubnames
                0x0000137f       0x69 Objects - TCPIP Demo App - C32 - PIC32_ENET_SK_DM320004_INTERNAL_ETHERNET\MainDemo.o
 .debug_pubnames
                0x000013e8       0x2c Objects - TCPIP Demo App - C32 - PIC32_ENET_SK_DM320004_INTERNAL_ETHERNET\BerkeleyTCPClientDemo.o
 .debug_pubnames
                0x00001414       0x2c Objects - TCPIP Demo App - C32 - PIC32_ENET_SK_DM320004_INTERNAL_ETHERNET\BerkeleyTCPServerDemo.o
 .debug_pubnames
                0x00001440       0x4a Objects - TCPIP Demo App - C32 - PIC32_ENET_SK_DM320004_INTERNAL_ETHERNET\BerkeleyUDPClientDemo.o
 .debug_pubnames
                0x0000148a       0x27 Objects - TCPIP Demo App - C32 - PIC32_ENET_SK_DM320004_INTERNAL_ETHERNET\GenericTCPClient.o
 .debug_pubnames
                0x000014b1       0x27 Objects - TCPIP Demo App - C32 - PIC32_ENET_SK_DM320004_INTERNAL_ETHERNET\GenericTCPServer.o
 .debug_pubnames
                0x000014d8       0x1f Objects - TCPIP Demo App - C32 - PIC32_ENET_SK_DM320004_INTERNAL_ETHERNET\PingDemo.o
 .debug_pubnames
                0x000014f7       0x1f Objects - TCPIP Demo App - C32 - PIC32_ENET_SK_DM320004_INTERNAL_ETHERNET\SMTPDemo.o
 .debug_pubnames
                0x00001516       0x21 Objects - TCPIP Demo App - C32 - PIC32_ENET_SK_DM320004_INTERNAL_ETHERNET\MPFSImg2.o
 .debug_pubnames
                0x00001537       0x1b C:/Program Files (x86)/Microchip/MPLAB C32 Suite/bin/../lib/gcc/pic32mx/3.4.4/../../../../pic32mx/lib/size\libc.a(atoi.o)
 .debug_pubnames
                0x00001552       0x1b C:/Program Files (x86)/Microchip/MPLAB C32 Suite/bin/../lib/gcc/pic32mx/3.4.4/../../../../pic32mx/lib/size\libc.a(atol.o)
 .debug_pubnames
                0x0000156d       0x1d C:/Program Files (x86)/Microchip/MPLAB C32 Suite/bin/../lib/gcc/pic32mx/3.4.4/../../../../pic32mx/lib/size\libc.a(calloc.o)
 .debug_pubnames
                0x0000158a       0x1d C:/Program Files (x86)/Microchip/MPLAB C32 Suite/bin/../lib/gcc/pic32mx/3.4.4/../../../../pic32mx/lib/size\libc.a(ctype.o)
 .debug_pubnames
                0x000015a7       0x32 C:/Program Files (x86)/Microchip/MPLAB C32 Suite/bin/../lib/gcc/pic32mx/3.4.4/../../../../pic32mx/lib/size\libc.a(malloc.o)
 .debug_pubnames
                0x000015d9       0x1d C:/Program Files (x86)/Microchip/MPLAB C32 Suite/bin/../lib/gcc/pic32mx/3.4.4/../../../../pic32mx/lib/size\libc.a(strchr.o)
 .debug_pubnames
                0x000015f6       0x1d C:/Program Files (x86)/Microchip/MPLAB C32 Suite/bin/../lib/gcc/pic32mx/3.4.4/../../../../pic32mx/lib/size\libc.a(strstr.o)
 .debug_pubnames
                0x00001613       0x74 C:/Program Files (x86)/Microchip/MPLAB C32 Suite/bin/../lib/gcc/pic32mx/3.4.4/../../../../pic32mx/lib/size\libc.a(sbrk.o)
 .debug_pubnames
                0x00001687       0x33 C:/Program Files (x86)/Microchip/MPLAB C32 Suite/bin/../lib/gcc/pic32mx/3.4.4/../../../../pic32mx/lib/size\libc.a(default-bootstrap-exception-handler.o)
 .debug_pubnames
                0x000016ba       0x20 C:/Program Files (x86)/Microchip/MPLAB C32 Suite/bin/../lib/gcc/pic32mx/3.4.4/../../../../pic32mx/lib/size\libc.a(default-on-reset.o)
 .debug_pubnames
                0x000016da       0x24 C:/Program Files (x86)/Microchip/MPLAB C32 Suite/bin/../lib/gcc/pic32mx/3.4.4/../../../../pic32mx/lib/size\libc.a(default-on-bootstrap.o)
 .debug_pubnames
                0x000016fe       0x1c C:/Program Files (x86)/Microchip/MPLAB C32 Suite/bin/../lib/gcc/pic32mx/3.4.4/../../../../pic32mx/lib/size\libc.a(errno.o)
 .debug_pubnames
                0x0000171a       0x1e C:/Program Files (x86)/Microchip/MPLAB C32 Suite/bin/../lib/gcc/pic32mx/3.4.4/../../../../pic32mx/lib/size\libc.a(strncmp.o)
 .debug_pubnames
                0x00001738       0x24 C:/Program Files (x86)/Microchip/MPLAB C32 Suite/bin/../lib/gcc/pic32mx/3.4.4/../../../../pic32mx/lib/size\libmchp_peripheral.a(read_core_timer_lib.o)
 .debug_pubnames
                0x0000175c       0x80 C:/Program Files (x86)/Microchip/MPLAB C32 Suite/bin/../lib/gcc/pic32mx/3.4.4/../../../../pic32mx/lib/size\libmchp_peripheral_32MX795F512L.a(eth_ack_packet_lib.o)
 .debug_pubnames
                0x000017dc       0x42 C:/Program Files (x86)/Microchip/MPLAB C32 Suite/bin/../lib/gcc/pic32mx/3.4.4/../../../../pic32mx/lib/size\libmchp_peripheral_32MX795F512L.a(eth_descriptors_add_lib.o)
 .debug_pubnames
                0x0000181e       0x1e C:/Program Files (x86)/Microchip/MPLAB C32 Suite/bin/../lib/gcc/pic32mx/3.4.4/../../../../pic32mx/lib/size\libmchp_peripheral_32MX795F512L.a(eth_init_lib.o)
 .debug_pubnames
                0x0000183c       0x21 C:/Program Files (x86)/Microchip/MPLAB C32 Suite/bin/../lib/gcc/pic32mx/3.4.4/../../../../pic32mx/lib/size\libmchp_peripheral_32MX795F512L.a(eth_mac_open_lib.o)
 .debug_pubnames
                0x0000185d       0x52 C:/Program Files (x86)/Microchip/MPLAB C32 Suite/bin/../lib/gcc/pic32mx/3.4.4/../../../../pic32mx/lib/size\libmchp_peripheral_32MX795F512L.a(eth_mac_set_address_max_lib.o)
 .debug_pubnames
                0x000018af       0x29 C:/Program Files (x86)/Microchip/MPLAB C32 Suite/bin/../lib/gcc/pic32mx/3.4.4/../../../../pic32mx/lib/size\libmchp_peripheral_32MX795F512L.a(eth_rx_buffers_append_lib.o)
 .debug_pubnames
                0x000018d8       0x92 C:/Program Files (x86)/Microchip/MPLAB C32 Suite/bin/../lib/gcc/pic32mx/3.4.4/../../../../pic32mx/lib/size\libmchp_peripheral_32MX795F512L.a(eth_rx_filters_lib.o)
 .debug_pubnames
                0x0000196a       0x38 C:/Program Files (x86)/Microchip/MPLAB C32 Suite/bin/../lib/gcc/pic32mx/3.4.4/../../../../pic32mx/lib/size\libmchp_peripheral_32MX795F512L.a(eth_rx_get_packet_lib.o)
 .debug_pubnames
                0x000019a2       0x29 C:/Program Files (x86)/Microchip/MPLAB C32 Suite/bin/../lib/gcc/pic32mx/3.4.4/../../../../pic32mx/lib/size\libmchp_peripheral_32MX795F512L.a(eth_rx_set_buffer_size_lib.o)
 .debug_pubnames
                0x000019cb       0x66 C:/Program Files (x86)/Microchip/MPLAB C32 Suite/bin/../lib/gcc/pic32mx/3.4.4/../../../../pic32mx/lib/size\libmchp_peripheral_32MX795F512L.a(eth_tx_packet_lib.o)
 .debug_pubnames
                0x00001a31       0x29 C:/Program Files (x86)/Microchip/MPLAB C32 Suite/bin/../lib/gcc/pic32mx/3.4.4/../../../../pic32mx/lib/size\libmchp_peripheral_32MX795F512L.a(_eth_append_busy_list_lib.o)
 .debug_pubnames
                0x00001a5a       0x90 C:/Program Files (x86)/Microchip/MPLAB C32 Suite/bin/../lib/gcc/pic32mx/3.4.4/../../../../pic32mx/lib/size\libmchp_peripheral_32MX795F512L.a(eth_miim_access.o)
 .debug_pubnames
                0x00001aea       0x20 C:/Program Files (x86)/Microchip/MPLAB C32 Suite/bin/../lib/gcc/pic32mx/3.4.4/../../../../pic32mx/lib/size\libmchp_peripheral_32MX795F512L.a(soft_reset_lib.o)
 .debug_pubnames
                0x00001b0a       0x3b C:/Program Files (x86)/Microchip/MPLAB C32 Suite/bin/../lib/gcc/pic32mx/3.4.4/../../../../pic32mx/lib/size\libmchp_peripheral_32MX795F512L.a(pcache.o)
 .debug_pubnames
                0x00001b45       0x2b C:/Program Files (x86)/Microchip/MPLAB C32 Suite/bin/../lib/gcc/pic32mx/3.4.4/../../../../pic32mx/lib/size\libmchp_peripheral_32MX795F512L.a(int_disable_interrupts_lib.o)
 .debug_pubnames
                0x00001b70       0x2b C:/Program Files (x86)/Microchip/MPLAB C32 Suite/bin/../lib/gcc/pic32mx/3.4.4/../../../../pic32mx/lib/size\libmchp_peripheral_32MX795F512L.a(int_restore_interrupts_lib.o)
 .debug_pubnames
                0x00001b9b       0x36 C:/Program Files (x86)/Microchip/MPLAB C32 Suite/bin/../lib/gcc/pic32mx/3.4.4/../../../../pic32mx/lib/size\libmchp_peripheral_32MX795F512L.a(int_enable_mv_int_lib.o)
 .debug_pubnames
                0x00001bd1       0xca C:/Program Files (x86)/Microchip/MPLAB C32 Suite/bin/../lib/gcc/pic32mx/3.4.4/../../../../pic32mx/lib/size\libmchp_peripheral_32MX795F512L.a(int_tbl_lib.o)
 .debug_pubnames
                0x00001c9b       0x2b C:/Program Files (x86)/Microchip/MPLAB C32 Suite/bin/../lib/gcc/pic32mx/3.4.4/../../../../pic32mx/lib/size\libmchp_peripheral_32MX795F512L.a(port_set_pins_digital_in_lib.o)
 .debug_pubnames
                0x00001cc6       0x2c C:/Program Files (x86)/Microchip/MPLAB C32 Suite/bin/../lib/gcc/pic32mx/3.4.4/../../../../pic32mx/lib/size\libmchp_peripheral_32MX795F512L.a(port_set_pins_digital_out_lib.o)
 .debug_pubnames
                0x00001cf2       0x2a C:/Program Files (x86)/Microchip/MPLAB C32 Suite/bin/../lib/gcc/pic32mx/3.4.4/../../../../pic32mx/lib/size\libmchp_peripheral_32MX795F512L.a(int_enable_interrupts_lib.o)

.debug_info     0x00000000    0x34258
 *(.debug_info .gnu.linkonce.wi.*)
 .debug_info    0x00000000      0xf8b Objects - TCPIP Demo App - C32 - PIC32_ENET_SK_DM320004_INTERNAL_ETHERNET\Announce.o
 .debug_info    0x00000f8b      0x6f6 Objects - TCPIP Demo App - C32 - PIC32_ENET_SK_DM320004_INTERNAL_ETHERNET\ARCFOUR.o
 .debug_info    0x00001681     0x1098 Objects - TCPIP Demo App - C32 - PIC32_ENET_SK_DM320004_INTERNAL_ETHERNET\ARP.o
 .debug_info    0x00002719      0x6f5 Objects - TCPIP Demo App - C32 - PIC32_ENET_SK_DM320004_INTERNAL_ETHERNET\AutoIP.o
 .debug_info    0x00002e0e     0x18c6 Objects - TCPIP Demo App - C32 - PIC32_ENET_SK_DM320004_INTERNAL_ETHERNET\BerkeleyAPI.o
 .debug_info    0x000046d4      0x6f5 Objects - TCPIP Demo App - C32 - PIC32_ENET_SK_DM320004_INTERNAL_ETHERNET\BigInt.o
 .debug_info    0x00004dc9      0x789 Objects - TCPIP Demo App - C32 - PIC32_ENET_SK_DM320004_INTERNAL_ETHERNET\Delay.o
 .debug_info    0x00005552      0x6f3 Objects - TCPIP Demo App - C32 - PIC32_ENET_SK_DM320004_INTERNAL_ETHERNET\DHCP.o
 .debug_info    0x00005c45      0x6f4 Objects - TCPIP Demo App - C32 - PIC32_ENET_SK_DM320004_INTERNAL_ETHERNET\DHCPs.o
 .debug_info    0x00006339     0x131c Objects - TCPIP Demo App - C32 - PIC32_ENET_SK_DM320004_INTERNAL_ETHERNET\DNS.o
 .debug_info    0x00007655      0x6f3 Objects - TCPIP Demo App - C32 - PIC32_ENET_SK_DM320004_INTERNAL_ETHERNET\DNSs.o
 .debug_info    0x00007d48     0x14b9 Objects - TCPIP Demo App - C32 - PIC32_ENET_SK_DM320004_INTERNAL_ETHERNET\DynDNS.o
 .debug_info    0x00009201      0x6f7 Objects - TCPIP Demo App - C32 - PIC32_ENET_SK_DM320004_INTERNAL_ETHERNET\ENC28J60.o
 .debug_info    0x000098f8      0x6f9 Objects - TCPIP Demo App - C32 - PIC32_ENET_SK_DM320004_INTERNAL_ETHERNET\ENCX24J600.o
 .debug_info    0x00009ff1     0x15b1 Objects - TCPIP Demo App - C32 - PIC32_ENET_SK_DM320004_INTERNAL_ETHERNET\ETHPIC32ExtPhy.o
 .debug_info    0x0000b5a2      0xb34 Objects - TCPIP Demo App - C32 - PIC32_ENET_SK_DM320004_INTERNAL_ETHERNET\ETHPIC32ExtPhyDP83848.o
 .debug_info    0x0000c0d6     0x1e44 Objects - TCPIP Demo App - C32 - PIC32_ENET_SK_DM320004_INTERNAL_ETHERNET\ETHPIC32IntMac.o
 .debug_info    0x0000df1a      0x6f9 Objects - TCPIP Demo App - C32 - PIC32_ENET_SK_DM320004_INTERNAL_ETHERNET\FileSystem.o
 .debug_info    0x0000e613      0x6f2 Objects - TCPIP Demo App - C32 - PIC32_ENET_SK_DM320004_INTERNAL_ETHERNET\FTP.o
 .debug_info    0x0000ed05      0xad8 Objects - TCPIP Demo App - C32 - PIC32_ENET_SK_DM320004_INTERNAL_ETHERNET\Hashes.o
 .debug_info    0x0000f7dd     0x14ec Objects - TCPIP Demo App - C32 - PIC32_ENET_SK_DM320004_INTERNAL_ETHERNET\Helpers.o
 .debug_info    0x00010cc9     0x12ec Objects - TCPIP Demo App - C32 - PIC32_ENET_SK_DM320004_INTERNAL_ETHERNET\HTTP2.o
 .debug_info    0x00011fb5      0x6f3 Objects - TCPIP Demo App - C32 - PIC32_ENET_SK_DM320004_INTERNAL_ETHERNET\HTTP.o
 .debug_info    0x000126a8     0x1076 Objects - TCPIP Demo App - C32 - PIC32_ENET_SK_DM320004_INTERNAL_ETHERNET\ICMP.o
 .debug_info    0x0001371e     0x10be Objects - TCPIP Demo App - C32 - PIC32_ENET_SK_DM320004_INTERNAL_ETHERNET\IP.o
 .debug_info    0x000147dc      0x6fa Objects - TCPIP Demo App - C32 - PIC32_ENET_SK_DM320004_INTERNAL_ETHERNET\LCDBlocking.o
 .debug_info    0x00014ed6      0xea6 Objects - TCPIP Demo App - C32 - PIC32_ENET_SK_DM320004_INTERNAL_ETHERNET\MPFS2.o
 .debug_info    0x00015d7c      0x6f3 Objects - TCPIP Demo App - C32 - PIC32_ENET_SK_DM320004_INTERNAL_ETHERNET\MPFS.o
 .debug_info    0x0001646f     0x10c2 Objects - TCPIP Demo App - C32 - PIC32_ENET_SK_DM320004_INTERNAL_ETHERNET\NBNS.o
 .debug_info    0x00017531      0x6f5 Objects - TCPIP Demo App - C32 - PIC32_ENET_SK_DM320004_INTERNAL_ETHERNET\Random.o
 .debug_info    0x00017c26      0xee4 Objects - TCPIP Demo App - C32 - PIC32_ENET_SK_DM320004_INTERNAL_ETHERNET\Reboot.o
 .debug_info    0x00018b0a      0x6f2 Objects - TCPIP Demo App - C32 - PIC32_ENET_SK_DM320004_INTERNAL_ETHERNET\RSA.o
 .debug_info    0x000191fc     0x19d5 Objects - TCPIP Demo App - C32 - PIC32_ENET_SK_DM320004_INTERNAL_ETHERNET\SMTP.o
 .debug_info    0x0001abd1      0x6f3 Objects - TCPIP Demo App - C32 - PIC32_ENET_SK_DM320004_INTERNAL_ETHERNET\SNMP.o
 .debug_info    0x0001b2c4      0x6f5 Objects - TCPIP Demo App - C32 - PIC32_ENET_SK_DM320004_INTERNAL_ETHERNET\SNMPv3.o
 .debug_info    0x0001b9b9      0x6f8 Objects - TCPIP Demo App - C32 - PIC32_ENET_SK_DM320004_INTERNAL_ETHERNET\SNMPv3USM.o
 .debug_info    0x0001c0b1     0x1068 Objects - TCPIP Demo App - C32 - PIC32_ENET_SK_DM320004_INTERNAL_ETHERNET\SNTP.o
 .debug_info    0x0001d119      0x6f8 Objects - TCPIP Demo App - C32 - PIC32_ENET_SK_DM320004_INTERNAL_ETHERNET\SPIEEPROM.o
 .debug_info    0x0001d811      0x6f7 Objects - TCPIP Demo App - C32 - PIC32_ENET_SK_DM320004_INTERNAL_ETHERNET\SPIFlash.o
 .debug_info    0x0001df08      0x6f5 Objects - TCPIP Demo App - C32 - PIC32_ENET_SK_DM320004_INTERNAL_ETHERNET\SPIRAM.o
 .debug_info    0x0001e5fd      0x6f2 Objects - TCPIP Demo App - C32 - PIC32_ENET_SK_DM320004_INTERNAL_ETHERNET\SSL.o
 .debug_info    0x0001ecef      0xf3e Objects - TCPIP Demo App - C32 - PIC32_ENET_SK_DM320004_INTERNAL_ETHERNET\StackTsk.o
 .debug_info    0x0001fc2d     0x276e Objects - TCPIP Demo App - C32 - PIC32_ENET_SK_DM320004_INTERNAL_ETHERNET\TCP.o
 .debug_info    0x0002239b      0xe17 Objects - TCPIP Demo App - C32 - PIC32_ENET_SK_DM320004_INTERNAL_ETHERNET\TCPPerformanceTest.o
 .debug_info    0x000231b2      0xaf7 Objects - TCPIP Demo App - C32 - PIC32_ENET_SK_DM320004_INTERNAL_ETHERNET\Telnet.o
 .debug_info    0x00023ca9      0x6f4 Objects - TCPIP Demo App - C32 - PIC32_ENET_SK_DM320004_INTERNAL_ETHERNET\TFTPc.o
 .debug_info    0x0002439d      0x997 Objects - TCPIP Demo App - C32 - PIC32_ENET_SK_DM320004_INTERNAL_ETHERNET\Tick.o
 .debug_info    0x00024d34      0x6fd Objects - TCPIP Demo App - C32 - PIC32_ENET_SK_DM320004_INTERNAL_ETHERNET\UART2TCPBridge.o
 .debug_info    0x00025431      0x6f3 Objects - TCPIP Demo App - C32 - PIC32_ENET_SK_DM320004_INTERNAL_ETHERNET\UART.o
 .debug_info    0x00025b24     0x15ad Objects - TCPIP Demo App - C32 - PIC32_ENET_SK_DM320004_INTERNAL_ETHERNET\UDP.o
 .debug_info    0x000270d1      0x701 Objects - TCPIP Demo App - C32 - PIC32_ENET_SK_DM320004_INTERNAL_ETHERNET\UDPPerformanceTest.o
 .debug_info    0x000277d2      0x6fd Objects - TCPIP Demo App - C32 - PIC32_ENET_SK_DM320004_INTERNAL_ETHERNET\ZeroconfHelper.o
 .debug_info    0x00027ecf      0x700 Objects - TCPIP Demo App - C32 - PIC32_ENET_SK_DM320004_INTERNAL_ETHERNET\ZeroconfLinkLocal.o
 .debug_info    0x000285cf      0x703 Objects - TCPIP Demo App - C32 - PIC32_ENET_SK_DM320004_INTERNAL_ETHERNET\ZeroconfMulticastDNS.o
 .debug_info    0x00028cd2     0x23f5 Objects - TCPIP Demo App - C32 - PIC32_ENET_SK_DM320004_INTERNAL_ETHERNET\CustomHTTPApp.o
 .debug_info    0x0002b0c7      0x6e3 Objects - TCPIP Demo App - C32 - PIC32_ENET_SK_DM320004_INTERNAL_ETHERNET\CustomSNMPApp.o
 .debug_info    0x0002b7aa      0x6e3 Objects - TCPIP Demo App - C32 - PIC32_ENET_SK_DM320004_INTERNAL_ETHERNET\CustomSSLCert.o
 .debug_info    0x0002be8d     0x1484 Objects - TCPIP Demo App - C32 - PIC32_ENET_SK_DM320004_INTERNAL_ETHERNET\MainDemo.o
 .debug_info    0x0002d311      0xa1e Objects - TCPIP Demo App - C32 - PIC32_ENET_SK_DM320004_INTERNAL_ETHERNET\BerkeleyTCPClientDemo.o
 .debug_info    0x0002dd2f      0x9a0 Objects - TCPIP Demo App - C32 - PIC32_ENET_SK_DM320004_INTERNAL_ETHERNET\BerkeleyTCPServerDemo.o
 .debug_info    0x0002e6cf      0xbd9 Objects - TCPIP Demo App - C32 - PIC32_ENET_SK_DM320004_INTERNAL_ETHERNET\BerkeleyUDPClientDemo.o
 .debug_info    0x0002f2a8      0x8e8 Objects - TCPIP Demo App - C32 - PIC32_ENET_SK_DM320004_INTERNAL_ETHERNET\GenericTCPClient.o
 .debug_info    0x0002fb90      0x82d Objects - TCPIP Demo App - C32 - PIC32_ENET_SK_DM320004_INTERNAL_ETHERNET\GenericTCPServer.o
 .debug_info    0x000303bd      0x6e3 Objects - TCPIP Demo App - C32 - PIC32_ENET_SK_DM320004_INTERNAL_ETHERNET\LegacyHTTPApp.o
 .debug_info    0x00030aa0      0x7b3 Objects - TCPIP Demo App - C32 - PIC32_ENET_SK_DM320004_INTERNAL_ETHERNET\PingDemo.o
 .debug_info    0x00031253      0xb56 Objects - TCPIP Demo App - C32 - PIC32_ENET_SK_DM320004_INTERNAL_ETHERNET\SMTPDemo.o
 .debug_info    0x00031da9      0x6e0 Objects - TCPIP Demo App - C32 - PIC32_ENET_SK_DM320004_INTERNAL_ETHERNET\UARTConfig.o
 .debug_info    0x00032489      0x720 Objects - TCPIP Demo App - C32 - PIC32_ENET_SK_DM320004_INTERNAL_ETHERNET\MPFSImg2.o
 .debug_info    0x00032ba9      0x6dd Objects - TCPIP Demo App - C32 - PIC32_ENET_SK_DM320004_INTERNAL_ETHERNET\MPFSImg.o
 .debug_info    0x00033286       0xaf C:/Program Files (x86)/Microchip/MPLAB C32 Suite/bin/../lib/gcc/pic32mx/3.4.4/../../../../pic32mx/lib/size\libc.a(atoi.o)
 .debug_info    0x00033335       0xba C:/Program Files (x86)/Microchip/MPLAB C32 Suite/bin/../lib/gcc/pic32mx/3.4.4/../../../../pic32mx/lib/size\libc.a(atol.o)
 .debug_info    0x000333ef       0xa8 C:/Program Files (x86)/Microchip/MPLAB C32 Suite/bin/../lib/gcc/pic32mx/3.4.4/../../../../pic32mx/lib/size\libc.a(calloc.o)
 .debug_info    0x00033497       0x61 C:/Program Files (x86)/Microchip/MPLAB C32 Suite/bin/../lib/gcc/pic32mx/3.4.4/../../../../pic32mx/lib/size\libc.a(ctype.o)
 .debug_info    0x000334f8      0x1f3 C:/Program Files (x86)/Microchip/MPLAB C32 Suite/bin/../lib/gcc/pic32mx/3.4.4/../../../../pic32mx/lib/size\libc.a(malloc.o)
 .debug_info    0x000336eb       0x88 C:/Program Files (x86)/Microchip/MPLAB C32 Suite/bin/../lib/gcc/pic32mx/3.4.4/../../../../pic32mx/lib/size\libc.a(strchr.o)
 .debug_info    0x00033773       0x86 C:/Program Files (x86)/Microchip/MPLAB C32 Suite/bin/../lib/gcc/pic32mx/3.4.4/../../../../pic32mx/lib/size\libc.a(strstr.o)
 .debug_info    0x000337f9      0x282 C:/Program Files (x86)/Microchip/MPLAB C32 Suite/bin/../lib/gcc/pic32mx/3.4.4/../../../../pic32mx/lib/size\libc.a(sbrk.o)
 .debug_info    0x00033a7b       0x31 C:/Program Files (x86)/Microchip/MPLAB C32 Suite/bin/../lib/gcc/pic32mx/3.4.4/../../../../pic32mx/lib/size\libc.a(default-bootstrap-exception-handler.o)
 .debug_info    0x00033aac       0x31 C:/Program Files (x86)/Microchip/MPLAB C32 Suite/bin/../lib/gcc/pic32mx/3.4.4/../../../../pic32mx/lib/size\libc.a(default-on-reset.o)
 .debug_info    0x00033add       0x31 C:/Program Files (x86)/Microchip/MPLAB C32 Suite/bin/../lib/gcc/pic32mx/3.4.4/../../../../pic32mx/lib/size\libc.a(default-on-bootstrap.o)
 .debug_info    0x00033b0e       0x3f C:/Program Files (x86)/Microchip/MPLAB C32 Suite/bin/../lib/gcc/pic32mx/3.4.4/../../../../pic32mx/lib/size\libc.a(errno.o)
 .debug_info    0x00033b4d       0x98 C:/Program Files (x86)/Microchip/MPLAB C32 Suite/bin/../lib/gcc/pic32mx/3.4.4/../../../../pic32mx/lib/size\libc.a(strncmp.o)
 .debug_info    0x00033be5       0x30 C:/Program Files (x86)/Microchip/MPLAB C32 Suite/bin/../lib/gcc/pic32mx/3.4.4/../../../../pic32mx/lib/size\libmchp_peripheral.a(read_core_timer_lib.o)
 .debug_info    0x00033c15       0x8b C:/Program Files (x86)/Microchip/MPLAB C32 Suite/bin/../lib/gcc/pic32mx/3.4.4/../../../../pic32mx/lib/size\libmchp_peripheral_32MX795F512L.a(eth_ack_packet_lib.o)
 .debug_info    0x00033ca0       0x42 C:/Program Files (x86)/Microchip/MPLAB C32 Suite/bin/../lib/gcc/pic32mx/3.4.4/../../../../pic32mx/lib/size\libmchp_peripheral_32MX795F512L.a(eth_descriptors_add_lib.o)
 .debug_info    0x00033ce2       0x30 C:/Program Files (x86)/Microchip/MPLAB C32 Suite/bin/../lib/gcc/pic32mx/3.4.4/../../../../pic32mx/lib/size\libmchp_peripheral_32MX795F512L.a(eth_init_lib.o)
 .debug_info    0x00033d12       0x30 C:/Program Files (x86)/Microchip/MPLAB C32 Suite/bin/../lib/gcc/pic32mx/3.4.4/../../../../pic32mx/lib/size\libmchp_peripheral_32MX795F512L.a(eth_mac_open_lib.o)
 .debug_info    0x00033d42       0x54 C:/Program Files (x86)/Microchip/MPLAB C32 Suite/bin/../lib/gcc/pic32mx/3.4.4/../../../../pic32mx/lib/size\libmchp_peripheral_32MX795F512L.a(eth_mac_set_address_max_lib.o)
 .debug_info    0x00033d96       0x30 C:/Program Files (x86)/Microchip/MPLAB C32 Suite/bin/../lib/gcc/pic32mx/3.4.4/../../../../pic32mx/lib/size\libmchp_peripheral_32MX795F512L.a(eth_rx_buffers_append_lib.o)
 .debug_info    0x00033dc6       0x8a C:/Program Files (x86)/Microchip/MPLAB C32 Suite/bin/../lib/gcc/pic32mx/3.4.4/../../../../pic32mx/lib/size\libmchp_peripheral_32MX795F512L.a(eth_rx_filters_lib.o)
 .debug_info    0x00033e50       0x42 C:/Program Files (x86)/Microchip/MPLAB C32 Suite/bin/../lib/gcc/pic32mx/3.4.4/../../../../pic32mx/lib/size\libmchp_peripheral_32MX795F512L.a(eth_rx_get_packet_lib.o)
 .debug_info    0x00033e92       0x30 C:/Program Files (x86)/Microchip/MPLAB C32 Suite/bin/../lib/gcc/pic32mx/3.4.4/../../../../pic32mx/lib/size\libmchp_peripheral_32MX795F512L.a(eth_rx_set_buffer_size_lib.o)
 .debug_info    0x00033ec2       0x89 C:/Program Files (x86)/Microchip/MPLAB C32 Suite/bin/../lib/gcc/pic32mx/3.4.4/../../../../pic32mx/lib/size\libmchp_peripheral_32MX795F512L.a(eth_tx_packet_lib.o)
 .debug_info    0x00033f4b       0x30 C:/Program Files (x86)/Microchip/MPLAB C32 Suite/bin/../lib/gcc/pic32mx/3.4.4/../../../../pic32mx/lib/size\libmchp_peripheral_32MX795F512L.a(_eth_append_busy_list_lib.o)
 .debug_info    0x00033f7b       0x8b C:/Program Files (x86)/Microchip/MPLAB C32 Suite/bin/../lib/gcc/pic32mx/3.4.4/../../../../pic32mx/lib/size\libmchp_peripheral_32MX795F512L.a(eth_miim_access.o)
 .debug_info    0x00034006       0x30 C:/Program Files (x86)/Microchip/MPLAB C32 Suite/bin/../lib/gcc/pic32mx/3.4.4/../../../../pic32mx/lib/size\libmchp_peripheral_32MX795F512L.a(soft_reset_lib.o)
 .debug_info    0x00034036       0x42 C:/Program Files (x86)/Microchip/MPLAB C32 Suite/bin/../lib/gcc/pic32mx/3.4.4/../../../../pic32mx/lib/size\libmchp_peripheral_32MX795F512L.a(pcache.o)
 .debug_info    0x00034078       0x30 C:/Program Files (x86)/Microchip/MPLAB C32 Suite/bin/../lib/gcc/pic32mx/3.4.4/../../../../pic32mx/lib/size\libmchp_peripheral_32MX795F512L.a(int_disable_interrupts_lib.o)
 .debug_info    0x000340a8       0x30 C:/Program Files (x86)/Microchip/MPLAB C32 Suite/bin/../lib/gcc/pic32mx/3.4.4/../../../../pic32mx/lib/size\libmchp_peripheral_32MX795F512L.a(int_restore_interrupts_lib.o)
 .debug_info    0x000340d8       0x30 C:/Program Files (x86)/Microchip/MPLAB C32 Suite/bin/../lib/gcc/pic32mx/3.4.4/../../../../pic32mx/lib/size\libmchp_peripheral_32MX795F512L.a(int_enable_mv_int_lib.o)
 .debug_info    0x00034108       0xc0 C:/Program Files (x86)/Microchip/MPLAB C32 Suite/bin/../lib/gcc/pic32mx/3.4.4/../../../../pic32mx/lib/size\libmchp_peripheral_32MX795F512L.a(int_tbl_lib.o)
 .debug_info    0x000341c8       0x30 C:/Program Files (x86)/Microchip/MPLAB C32 Suite/bin/../lib/gcc/pic32mx/3.4.4/../../../../pic32mx/lib/size\libmchp_peripheral_32MX795F512L.a(port_set_pins_digital_in_lib.o)
 .debug_info    0x000341f8       0x30 C:/Program Files (x86)/Microchip/MPLAB C32 Suite/bin/../lib/gcc/pic32mx/3.4.4/../../../../pic32mx/lib/size\libmchp_peripheral_32MX795F512L.a(port_set_pins_digital_out_lib.o)
 .debug_info    0x00034228        0x0 C:/Program Files (x86)/Microchip/MPLAB C32 Suite/bin/../lib/gcc/pic32mx/3.4.4/../../../../pic32mx/lib/size\libmchp_peripheral_32MX795F512L.a(_ports_tbl_libp.o)
 .debug_info    0x00034228       0x30 C:/Program Files (x86)/Microchip/MPLAB C32 Suite/bin/../lib/gcc/pic32mx/3.4.4/../../../../pic32mx/lib/size\libmchp_peripheral_32MX795F512L.a(int_enable_interrupts_lib.o)

.debug_abbrev   0x00000000     0x70d2
 *(.debug_abbrev)
 .debug_abbrev  0x00000000      0x1b9 Objects - TCPIP Demo App - C32 - PIC32_ENET_SK_DM320004_INTERNAL_ETHERNET\Announce.o
 .debug_abbrev  0x000001b9      0x107 Objects - TCPIP Demo App - C32 - PIC32_ENET_SK_DM320004_INTERNAL_ETHERNET\ARCFOUR.o
 .debug_abbrev  0x000002c0      0x229 Objects - TCPIP Demo App - C32 - PIC32_ENET_SK_DM320004_INTERNAL_ETHERNET\ARP.o
 .debug_abbrev  0x000004e9      0x107 Objects - TCPIP Demo App - C32 - PIC32_ENET_SK_DM320004_INTERNAL_ETHERNET\AutoIP.o
 .debug_abbrev  0x000005f0      0x29c Objects - TCPIP Demo App - C32 - PIC32_ENET_SK_DM320004_INTERNAL_ETHERNET\BerkeleyAPI.o
 .debug_abbrev  0x0000088c      0x107 Objects - TCPIP Demo App - C32 - PIC32_ENET_SK_DM320004_INTERNAL_ETHERNET\BigInt.o
 .debug_abbrev  0x00000993      0x13c Objects - TCPIP Demo App - C32 - PIC32_ENET_SK_DM320004_INTERNAL_ETHERNET\Delay.o
 .debug_abbrev  0x00000acf      0x107 Objects - TCPIP Demo App - C32 - PIC32_ENET_SK_DM320004_INTERNAL_ETHERNET\DHCP.o
 .debug_abbrev  0x00000bd6      0x107 Objects - TCPIP Demo App - C32 - PIC32_ENET_SK_DM320004_INTERNAL_ETHERNET\DHCPs.o
 .debug_abbrev  0x00000cdd      0x232 Objects - TCPIP Demo App - C32 - PIC32_ENET_SK_DM320004_INTERNAL_ETHERNET\DNS.o
 .debug_abbrev  0x00000f0f      0x107 Objects - TCPIP Demo App - C32 - PIC32_ENET_SK_DM320004_INTERNAL_ETHERNET\DNSs.o
 .debug_abbrev  0x00001016      0x24f Objects - TCPIP Demo App - C32 - PIC32_ENET_SK_DM320004_INTERNAL_ETHERNET\DynDNS.o
 .debug_abbrev  0x00001265      0x107 Objects - TCPIP Demo App - C32 - PIC32_ENET_SK_DM320004_INTERNAL_ETHERNET\ENC28J60.o
 .debug_abbrev  0x0000136c      0x107 Objects - TCPIP Demo App - C32 - PIC32_ENET_SK_DM320004_INTERNAL_ETHERNET\ENCX24J600.o
 .debug_abbrev  0x00001473      0x2a8 Objects - TCPIP Demo App - C32 - PIC32_ENET_SK_DM320004_INTERNAL_ETHERNET\ETHPIC32ExtPhy.o
 .debug_abbrev  0x0000171b      0x16b Objects - TCPIP Demo App - C32 - PIC32_ENET_SK_DM320004_INTERNAL_ETHERNET\ETHPIC32ExtPhyDP83848.o
 .debug_abbrev  0x00001886      0x2f3 Objects - TCPIP Demo App - C32 - PIC32_ENET_SK_DM320004_INTERNAL_ETHERNET\ETHPIC32IntMac.o
 .debug_abbrev  0x00001b79      0x107 Objects - TCPIP Demo App - C32 - PIC32_ENET_SK_DM320004_INTERNAL_ETHERNET\FileSystem.o
 .debug_abbrev  0x00001c80      0x107 Objects - TCPIP Demo App - C32 - PIC32_ENET_SK_DM320004_INTERNAL_ETHERNET\FTP.o
 .debug_abbrev  0x00001d87      0x1d4 Objects - TCPIP Demo App - C32 - PIC32_ENET_SK_DM320004_INTERNAL_ETHERNET\Hashes.o
 .debug_abbrev  0x00001f5b      0x208 Objects - TCPIP Demo App - C32 - PIC32_ENET_SK_DM320004_INTERNAL_ETHERNET\Helpers.o
 .debug_abbrev  0x00002163      0x237 Objects - TCPIP Demo App - C32 - PIC32_ENET_SK_DM320004_INTERNAL_ETHERNET\HTTP2.o
 .debug_abbrev  0x0000239a      0x107 Objects - TCPIP Demo App - C32 - PIC32_ENET_SK_DM320004_INTERNAL_ETHERNET\HTTP.o
 .debug_abbrev  0x000024a1      0x216 Objects - TCPIP Demo App - C32 - PIC32_ENET_SK_DM320004_INTERNAL_ETHERNET\ICMP.o
 .debug_abbrev  0x000026b7      0x205 Objects - TCPIP Demo App - C32 - PIC32_ENET_SK_DM320004_INTERNAL_ETHERNET\IP.o
 .debug_abbrev  0x000028bc      0x107 Objects - TCPIP Demo App - C32 - PIC32_ENET_SK_DM320004_INTERNAL_ETHERNET\LCDBlocking.o
 .debug_abbrev  0x000029c3      0x22f Objects - TCPIP Demo App - C32 - PIC32_ENET_SK_DM320004_INTERNAL_ETHERNET\MPFS2.o
 .debug_abbrev  0x00002bf2      0x107 Objects - TCPIP Demo App - C32 - PIC32_ENET_SK_DM320004_INTERNAL_ETHERNET\MPFS.o
 .debug_abbrev  0x00002cf9      0x210 Objects - TCPIP Demo App - C32 - PIC32_ENET_SK_DM320004_INTERNAL_ETHERNET\NBNS.o
 .debug_abbrev  0x00002f09      0x107 Objects - TCPIP Demo App - C32 - PIC32_ENET_SK_DM320004_INTERNAL_ETHERNET\Random.o
 .debug_abbrev  0x00003010      0x174 Objects - TCPIP Demo App - C32 - PIC32_ENET_SK_DM320004_INTERNAL_ETHERNET\Reboot.o
 .debug_abbrev  0x00003184      0x107 Objects - TCPIP Demo App - C32 - PIC32_ENET_SK_DM320004_INTERNAL_ETHERNET\RSA.o
 .debug_abbrev  0x0000328b      0x2aa Objects - TCPIP Demo App - C32 - PIC32_ENET_SK_DM320004_INTERNAL_ETHERNET\SMTP.o
 .debug_abbrev  0x00003535      0x107 Objects - TCPIP Demo App - C32 - PIC32_ENET_SK_DM320004_INTERNAL_ETHERNET\SNMP.o
 .debug_abbrev  0x0000363c      0x107 Objects - TCPIP Demo App - C32 - PIC32_ENET_SK_DM320004_INTERNAL_ETHERNET\SNMPv3.o
 .debug_abbrev  0x00003743      0x107 Objects - TCPIP Demo App - C32 - PIC32_ENET_SK_DM320004_INTERNAL_ETHERNET\SNMPv3USM.o
 .debug_abbrev  0x0000384a      0x1b2 Objects - TCPIP Demo App - C32 - PIC32_ENET_SK_DM320004_INTERNAL_ETHERNET\SNTP.o
 .debug_abbrev  0x000039fc      0x107 Objects - TCPIP Demo App - C32 - PIC32_ENET_SK_DM320004_INTERNAL_ETHERNET\SPIEEPROM.o
 .debug_abbrev  0x00003b03      0x107 Objects - TCPIP Demo App - C32 - PIC32_ENET_SK_DM320004_INTERNAL_ETHERNET\SPIFlash.o
 .debug_abbrev  0x00003c0a      0x107 Objects - TCPIP Demo App - C32 - PIC32_ENET_SK_DM320004_INTERNAL_ETHERNET\SPIRAM.o
 .debug_abbrev  0x00003d11      0x107 Objects - TCPIP Demo App - C32 - PIC32_ENET_SK_DM320004_INTERNAL_ETHERNET\SSL.o
 .debug_abbrev  0x00003e18      0x1c5 Objects - TCPIP Demo App - C32 - PIC32_ENET_SK_DM320004_INTERNAL_ETHERNET\StackTsk.o
 .debug_abbrev  0x00003fdd      0x2a4 Objects - TCPIP Demo App - C32 - PIC32_ENET_SK_DM320004_INTERNAL_ETHERNET\TCP.o
 .debug_abbrev  0x00004281      0x1b8 Objects - TCPIP Demo App - C32 - PIC32_ENET_SK_DM320004_INTERNAL_ETHERNET\TCPPerformanceTest.o
 .debug_abbrev  0x00004439      0x173 Objects - TCPIP Demo App - C32 - PIC32_ENET_SK_DM320004_INTERNAL_ETHERNET\Telnet.o
 .debug_abbrev  0x000045ac      0x107 Objects - TCPIP Demo App - C32 - PIC32_ENET_SK_DM320004_INTERNAL_ETHERNET\TFTPc.o
 .debug_abbrev  0x000046b3      0x1b5 Objects - TCPIP Demo App - C32 - PIC32_ENET_SK_DM320004_INTERNAL_ETHERNET\Tick.o
 .debug_abbrev  0x00004868      0x107 Objects - TCPIP Demo App - C32 - PIC32_ENET_SK_DM320004_INTERNAL_ETHERNET\UART2TCPBridge.o
 .debug_abbrev  0x0000496f      0x107 Objects - TCPIP Demo App - C32 - PIC32_ENET_SK_DM320004_INTERNAL_ETHERNET\UART.o
 .debug_abbrev  0x00004a76      0x2a4 Objects - TCPIP Demo App - C32 - PIC32_ENET_SK_DM320004_INTERNAL_ETHERNET\UDP.o
 .debug_abbrev  0x00004d1a      0x107 Objects - TCPIP Demo App - C32 - PIC32_ENET_SK_DM320004_INTERNAL_ETHERNET\UDPPerformanceTest.o
 .debug_abbrev  0x00004e21      0x107 Objects - TCPIP Demo App - C32 - PIC32_ENET_SK_DM320004_INTERNAL_ETHERNET\ZeroconfHelper.o
 .debug_abbrev  0x00004f28      0x107 Objects - TCPIP Demo App - C32 - PIC32_ENET_SK_DM320004_INTERNAL_ETHERNET\ZeroconfLinkLocal.o
 .debug_abbrev  0x0000502f      0x107 Objects - TCPIP Demo App - C32 - PIC32_ENET_SK_DM320004_INTERNAL_ETHERNET\ZeroconfMulticastDNS.o
 .debug_abbrev  0x00005136      0x2a7 Objects - TCPIP Demo App - C32 - PIC32_ENET_SK_DM320004_INTERNAL_ETHERNET\CustomHTTPApp.o
 .debug_abbrev  0x000053dd      0x107 Objects - TCPIP Demo App - C32 - PIC32_ENET_SK_DM320004_INTERNAL_ETHERNET\CustomSNMPApp.o
 .debug_abbrev  0x000054e4      0x107 Objects - TCPIP Demo App - C32 - PIC32_ENET_SK_DM320004_INTERNAL_ETHERNET\CustomSSLCert.o
 .debug_abbrev  0x000055eb      0x2db Objects - TCPIP Demo App - C32 - PIC32_ENET_SK_DM320004_INTERNAL_ETHERNET\MainDemo.o
 .debug_abbrev  0x000058c6      0x175 Objects - TCPIP Demo App - C32 - PIC32_ENET_SK_DM320004_INTERNAL_ETHERNET\BerkeleyTCPClientDemo.o
 .debug_abbrev  0x00005a3b      0x175 Objects - TCPIP Demo App - C32 - PIC32_ENET_SK_DM320004_INTERNAL_ETHERNET\BerkeleyTCPServerDemo.o
 .debug_abbrev  0x00005bb0      0x1b2 Objects - TCPIP Demo App - C32 - PIC32_ENET_SK_DM320004_INTERNAL_ETHERNET\BerkeleyUDPClientDemo.o
 .debug_abbrev  0x00005d62      0x14e Objects - TCPIP Demo App - C32 - PIC32_ENET_SK_DM320004_INTERNAL_ETHERNET\GenericTCPClient.o
 .debug_abbrev  0x00005eb0      0x14e Objects - TCPIP Demo App - C32 - PIC32_ENET_SK_DM320004_INTERNAL_ETHERNET\GenericTCPServer.o
 .debug_abbrev  0x00005ffe      0x107 Objects - TCPIP Demo App - C32 - PIC32_ENET_SK_DM320004_INTERNAL_ETHERNET\LegacyHTTPApp.o
 .debug_abbrev  0x00006105      0x143 Objects - TCPIP Demo App - C32 - PIC32_ENET_SK_DM320004_INTERNAL_ETHERNET\PingDemo.o
 .debug_abbrev  0x00006248      0x1a8 Objects - TCPIP Demo App - C32 - PIC32_ENET_SK_DM320004_INTERNAL_ETHERNET\SMTPDemo.o
 .debug_abbrev  0x000063f0      0x107 Objects - TCPIP Demo App - C32 - PIC32_ENET_SK_DM320004_INTERNAL_ETHERNET\UARTConfig.o
 .debug_abbrev  0x000064f7      0x121 Objects - TCPIP Demo App - C32 - PIC32_ENET_SK_DM320004_INTERNAL_ETHERNET\MPFSImg2.o
 .debug_abbrev  0x00006618      0x107 Objects - TCPIP Demo App - C32 - PIC32_ENET_SK_DM320004_INTERNAL_ETHERNET\MPFSImg.o
 .debug_abbrev  0x0000671f       0x9b C:/Program Files (x86)/Microchip/MPLAB C32 Suite/bin/../lib/gcc/pic32mx/3.4.4/../../../../pic32mx/lib/size\libc.a(atoi.o)
 .debug_abbrev  0x000067ba       0x9b C:/Program Files (x86)/Microchip/MPLAB C32 Suite/bin/../lib/gcc/pic32mx/3.4.4/../../../../pic32mx/lib/size\libc.a(atol.o)
 .debug_abbrev  0x00006855       0x87 C:/Program Files (x86)/Microchip/MPLAB C32 Suite/bin/../lib/gcc/pic32mx/3.4.4/../../../../pic32mx/lib/size\libc.a(calloc.o)
 .debug_abbrev  0x000068dc       0x49 C:/Program Files (x86)/Microchip/MPLAB C32 Suite/bin/../lib/gcc/pic32mx/3.4.4/../../../../pic32mx/lib/size\libc.a(ctype.o)
 .debug_abbrev  0x00006925      0x136 C:/Program Files (x86)/Microchip/MPLAB C32 Suite/bin/../lib/gcc/pic32mx/3.4.4/../../../../pic32mx/lib/size\libc.a(malloc.o)
 .debug_abbrev  0x00006a5b       0x5e C:/Program Files (x86)/Microchip/MPLAB C32 Suite/bin/../lib/gcc/pic32mx/3.4.4/../../../../pic32mx/lib/size\libc.a(strchr.o)
 .debug_abbrev  0x00006ab9       0x5e C:/Program Files (x86)/Microchip/MPLAB C32 Suite/bin/../lib/gcc/pic32mx/3.4.4/../../../../pic32mx/lib/size\libc.a(strstr.o)
 .debug_abbrev  0x00006b17      0x153 C:/Program Files (x86)/Microchip/MPLAB C32 Suite/bin/../lib/gcc/pic32mx/3.4.4/../../../../pic32mx/lib/size\libc.a(sbrk.o)
 .debug_abbrev  0x00006c6a       0x25 C:/Program Files (x86)/Microchip/MPLAB C32 Suite/bin/../lib/gcc/pic32mx/3.4.4/../../../../pic32mx/lib/size\libc.a(default-bootstrap-exception-handler.o)
 .debug_abbrev  0x00006c8f       0x25 C:/Program Files (x86)/Microchip/MPLAB C32 Suite/bin/../lib/gcc/pic32mx/3.4.4/../../../../pic32mx/lib/size\libc.a(default-on-reset.o)
 .debug_abbrev  0x00006cb4       0x25 C:/Program Files (x86)/Microchip/MPLAB C32 Suite/bin/../lib/gcc/pic32mx/3.4.4/../../../../pic32mx/lib/size\libc.a(default-on-bootstrap.o)
 .debug_abbrev  0x00006cd9       0x30 C:/Program Files (x86)/Microchip/MPLAB C32 Suite/bin/../lib/gcc/pic32mx/3.4.4/../../../../pic32mx/lib/size\libc.a(errno.o)
 .debug_abbrev  0x00006d09       0x6b C:/Program Files (x86)/Microchip/MPLAB C32 Suite/bin/../lib/gcc/pic32mx/3.4.4/../../../../pic32mx/lib/size\libc.a(strncmp.o)
 .debug_abbrev  0x00006d74       0x23 C:/Program Files (x86)/Microchip/MPLAB C32 Suite/bin/../lib/gcc/pic32mx/3.4.4/../../../../pic32mx/lib/size\libmchp_peripheral.a(read_core_timer_lib.o)
 .debug_abbrev  0x00006d97       0x47 C:/Program Files (x86)/Microchip/MPLAB C32 Suite/bin/../lib/gcc/pic32mx/3.4.4/../../../../pic32mx/lib/size\libmchp_peripheral_32MX795F512L.a(eth_ack_packet_lib.o)
 .debug_abbrev  0x00006dde       0x23 C:/Program Files (x86)/Microchip/MPLAB C32 Suite/bin/../lib/gcc/pic32mx/3.4.4/../../../../pic32mx/lib/size\libmchp_peripheral_32MX795F512L.a(eth_descriptors_add_lib.o)
 .debug_abbrev  0x00006e01       0x23 C:/Program Files (x86)/Microchip/MPLAB C32 Suite/bin/../lib/gcc/pic32mx/3.4.4/../../../../pic32mx/lib/size\libmchp_peripheral_32MX795F512L.a(eth_init_lib.o)
 .debug_abbrev  0x00006e24       0x23 C:/Program Files (x86)/Microchip/MPLAB C32 Suite/bin/../lib/gcc/pic32mx/3.4.4/../../../../pic32mx/lib/size\libmchp_peripheral_32MX795F512L.a(eth_mac_open_lib.o)
 .debug_abbrev  0x00006e47       0x23 C:/Program Files (x86)/Microchip/MPLAB C32 Suite/bin/../lib/gcc/pic32mx/3.4.4/../../../../pic32mx/lib/size\libmchp_peripheral_32MX795F512L.a(eth_mac_set_address_max_lib.o)
 .debug_abbrev  0x00006e6a       0x23 C:/Program Files (x86)/Microchip/MPLAB C32 Suite/bin/../lib/gcc/pic32mx/3.4.4/../../../../pic32mx/lib/size\libmchp_peripheral_32MX795F512L.a(eth_rx_buffers_append_lib.o)
 .debug_abbrev  0x00006e8d       0x23 C:/Program Files (x86)/Microchip/MPLAB C32 Suite/bin/../lib/gcc/pic32mx/3.4.4/../../../../pic32mx/lib/size\libmchp_peripheral_32MX795F512L.a(eth_rx_filters_lib.o)
 .debug_abbrev  0x00006eb0       0x23 C:/Program Files (x86)/Microchip/MPLAB C32 Suite/bin/../lib/gcc/pic32mx/3.4.4/../../../../pic32mx/lib/size\libmchp_peripheral_32MX795F512L.a(eth_rx_get_packet_lib.o)
 .debug_abbrev  0x00006ed3       0x23 C:/Program Files (x86)/Microchip/MPLAB C32 Suite/bin/../lib/gcc/pic32mx/3.4.4/../../../../pic32mx/lib/size\libmchp_peripheral_32MX795F512L.a(eth_rx_set_buffer_size_lib.o)
 .debug_abbrev  0x00006ef6       0x47 C:/Program Files (x86)/Microchip/MPLAB C32 Suite/bin/../lib/gcc/pic32mx/3.4.4/../../../../pic32mx/lib/size\libmchp_peripheral_32MX795F512L.a(eth_tx_packet_lib.o)
 .debug_abbrev  0x00006f3d       0x23 C:/Program Files (x86)/Microchip/MPLAB C32 Suite/bin/../lib/gcc/pic32mx/3.4.4/../../../../pic32mx/lib/size\libmchp_peripheral_32MX795F512L.a(_eth_append_busy_list_lib.o)
 .debug_abbrev  0x00006f60       0x36 C:/Program Files (x86)/Microchip/MPLAB C32 Suite/bin/../lib/gcc/pic32mx/3.4.4/../../../../pic32mx/lib/size\libmchp_peripheral_32MX795F512L.a(eth_miim_access.o)
 .debug_abbrev  0x00006f96       0x23 C:/Program Files (x86)/Microchip/MPLAB C32 Suite/bin/../lib/gcc/pic32mx/3.4.4/../../../../pic32mx/lib/size\libmchp_peripheral_32MX795F512L.a(soft_reset_lib.o)
 .debug_abbrev  0x00006fb9       0x23 C:/Program Files (x86)/Microchip/MPLAB C32 Suite/bin/../lib/gcc/pic32mx/3.4.4/../../../../pic32mx/lib/size\libmchp_peripheral_32MX795F512L.a(pcache.o)
 .debug_abbrev  0x00006fdc       0x23 C:/Program Files (x86)/Microchip/MPLAB C32 Suite/bin/../lib/gcc/pic32mx/3.4.4/../../../../pic32mx/lib/size\libmchp_peripheral_32MX795F512L.a(int_disable_interrupts_lib.o)
 .debug_abbrev  0x00006fff       0x23 C:/Program Files (x86)/Microchip/MPLAB C32 Suite/bin/../lib/gcc/pic32mx/3.4.4/../../../../pic32mx/lib/size\libmchp_peripheral_32MX795F512L.a(int_restore_interrupts_lib.o)
 .debug_abbrev  0x00007022       0x23 C:/Program Files (x86)/Microchip/MPLAB C32 Suite/bin/../lib/gcc/pic32mx/3.4.4/../../../../pic32mx/lib/size\libmchp_peripheral_32MX795F512L.a(int_enable_mv_int_lib.o)
 .debug_abbrev  0x00007045       0x23 C:/Program Files (x86)/Microchip/MPLAB C32 Suite/bin/../lib/gcc/pic32mx/3.4.4/../../../../pic32mx/lib/size\libmchp_peripheral_32MX795F512L.a(int_tbl_lib.o)
 .debug_abbrev  0x00007068       0x23 C:/Program Files (x86)/Microchip/MPLAB C32 Suite/bin/../lib/gcc/pic32mx/3.4.4/../../../../pic32mx/lib/size\libmchp_peripheral_32MX795F512L.a(port_set_pins_digital_in_lib.o)
 .debug_abbrev  0x0000708b       0x23 C:/Program Files (x86)/Microchip/MPLAB C32 Suite/bin/../lib/gcc/pic32mx/3.4.4/../../../../pic32mx/lib/size\libmchp_peripheral_32MX795F512L.a(port_set_pins_digital_out_lib.o)
 .debug_abbrev  0x000070ae        0x1 C:/Program Files (x86)/Microchip/MPLAB C32 Suite/bin/../lib/gcc/pic32mx/3.4.4/../../../../pic32mx/lib/size\libmchp_peripheral_32MX795F512L.a(_ports_tbl_libp.o)
 .debug_abbrev  0x000070af       0x23 C:/Program Files (x86)/Microchip/MPLAB C32 Suite/bin/../lib/gcc/pic32mx/3.4.4/../../../../pic32mx/lib/size\libmchp_peripheral_32MX795F512L.a(int_enable_interrupts_lib.o)

.debug_line     0x00000000     0xb4d2
 *(.debug_line)
 .debug_line    0x00000000      0x207 Objects - TCPIP Demo App - C32 - PIC32_ENET_SK_DM320004_INTERNAL_ETHERNET\Announce.o
 .debug_line    0x00000207      0x148 Objects - TCPIP Demo App - C32 - PIC32_ENET_SK_DM320004_INTERNAL_ETHERNET\ARCFOUR.o
 .debug_line    0x0000034f      0x22d Objects - TCPIP Demo App - C32 - PIC32_ENET_SK_DM320004_INTERNAL_ETHERNET\ARP.o
 .debug_line    0x0000057c      0x148 Objects - TCPIP Demo App - C32 - PIC32_ENET_SK_DM320004_INTERNAL_ETHERNET\AutoIP.o
 .debug_line    0x000006c4      0x412 Objects - TCPIP Demo App - C32 - PIC32_ENET_SK_DM320004_INTERNAL_ETHERNET\BerkeleyAPI.o
 .debug_line    0x00000ad6      0x148 Objects - TCPIP Demo App - C32 - PIC32_ENET_SK_DM320004_INTERNAL_ETHERNET\BigInt.o
 .debug_line    0x00000c1e      0x18e Objects - TCPIP Demo App - C32 - PIC32_ENET_SK_DM320004_INTERNAL_ETHERNET\Delay.o
 .debug_line    0x00000dac      0x148 Objects - TCPIP Demo App - C32 - PIC32_ENET_SK_DM320004_INTERNAL_ETHERNET\DHCP.o
 .debug_line    0x00000ef4      0x148 Objects - TCPIP Demo App - C32 - PIC32_ENET_SK_DM320004_INTERNAL_ETHERNET\DHCPs.o
 .debug_line    0x0000103c      0x2ec Objects - TCPIP Demo App - C32 - PIC32_ENET_SK_DM320004_INTERNAL_ETHERNET\DNS.o
 .debug_line    0x00001328      0x148 Objects - TCPIP Demo App - C32 - PIC32_ENET_SK_DM320004_INTERNAL_ETHERNET\DNSs.o
 .debug_line    0x00001470      0x361 Objects - TCPIP Demo App - C32 - PIC32_ENET_SK_DM320004_INTERNAL_ETHERNET\DynDNS.o
 .debug_line    0x000017d1      0x148 Objects - TCPIP Demo App - C32 - PIC32_ENET_SK_DM320004_INTERNAL_ETHERNET\ENC28J60.o
 .debug_line    0x00001919      0x148 Objects - TCPIP Demo App - C32 - PIC32_ENET_SK_DM320004_INTERNAL_ETHERNET\ENCX24J600.o
 .debug_line    0x00001a61      0x3fa Objects - TCPIP Demo App - C32 - PIC32_ENET_SK_DM320004_INTERNAL_ETHERNET\ETHPIC32ExtPhy.o
 .debug_line    0x00001e5b      0x1f5 Objects - TCPIP Demo App - C32 - PIC32_ENET_SK_DM320004_INTERNAL_ETHERNET\ETHPIC32ExtPhyDP83848.o
 .debug_line    0x00002050      0x3cb Objects - TCPIP Demo App - C32 - PIC32_ENET_SK_DM320004_INTERNAL_ETHERNET\ETHPIC32IntMac.o
 .debug_line    0x0000241b      0x148 Objects - TCPIP Demo App - C32 - PIC32_ENET_SK_DM320004_INTERNAL_ETHERNET\FileSystem.o
 .debug_line    0x00002563      0x148 Objects - TCPIP Demo App - C32 - PIC32_ENET_SK_DM320004_INTERNAL_ETHERNET\FTP.o
 .debug_line    0x000026ab      0x246 Objects - TCPIP Demo App - C32 - PIC32_ENET_SK_DM320004_INTERNAL_ETHERNET\Hashes.o
 .debug_line    0x000028f1      0x3e7 Objects - TCPIP Demo App - C32 - PIC32_ENET_SK_DM320004_INTERNAL_ETHERNET\Helpers.o
 .debug_line    0x00002cd8      0x60a Objects - TCPIP Demo App - C32 - PIC32_ENET_SK_DM320004_INTERNAL_ETHERNET\HTTP2.o
 .debug_line    0x000032e2      0x148 Objects - TCPIP Demo App - C32 - PIC32_ENET_SK_DM320004_INTERNAL_ETHERNET\HTTP.o
 .debug_line    0x0000342a      0x236 Objects - TCPIP Demo App - C32 - PIC32_ENET_SK_DM320004_INTERNAL_ETHERNET\ICMP.o
 .debug_line    0x00003660      0x1f9 Objects - TCPIP Demo App - C32 - PIC32_ENET_SK_DM320004_INTERNAL_ETHERNET\IP.o
 .debug_line    0x00003859      0x148 Objects - TCPIP Demo App - C32 - PIC32_ENET_SK_DM320004_INTERNAL_ETHERNET\LCDBlocking.o
 .debug_line    0x000039a1      0x375 Objects - TCPIP Demo App - C32 - PIC32_ENET_SK_DM320004_INTERNAL_ETHERNET\MPFS2.o
 .debug_line    0x00003d16      0x148 Objects - TCPIP Demo App - C32 - PIC32_ENET_SK_DM320004_INTERNAL_ETHERNET\MPFS.o
 .debug_line    0x00003e5e      0x242 Objects - TCPIP Demo App - C32 - PIC32_ENET_SK_DM320004_INTERNAL_ETHERNET\NBNS.o
 .debug_line    0x000040a0      0x148 Objects - TCPIP Demo App - C32 - PIC32_ENET_SK_DM320004_INTERNAL_ETHERNET\Random.o
 .debug_line    0x000041e8      0x1d2 Objects - TCPIP Demo App - C32 - PIC32_ENET_SK_DM320004_INTERNAL_ETHERNET\Reboot.o
 .debug_line    0x000043ba      0x148 Objects - TCPIP Demo App - C32 - PIC32_ENET_SK_DM320004_INTERNAL_ETHERNET\RSA.o
 .debug_line    0x00004502      0x4d9 Objects - TCPIP Demo App - C32 - PIC32_ENET_SK_DM320004_INTERNAL_ETHERNET\SMTP.o
 .debug_line    0x000049db      0x148 Objects - TCPIP Demo App - C32 - PIC32_ENET_SK_DM320004_INTERNAL_ETHERNET\SNMP.o
 .debug_line    0x00004b23      0x148 Objects - TCPIP Demo App - C32 - PIC32_ENET_SK_DM320004_INTERNAL_ETHERNET\SNMPv3.o
 .debug_line    0x00004c6b      0x148 Objects - TCPIP Demo App - C32 - PIC32_ENET_SK_DM320004_INTERNAL_ETHERNET\SNMPv3USM.o
 .debug_line    0x00004db3      0x21c Objects - TCPIP Demo App - C32 - PIC32_ENET_SK_DM320004_INTERNAL_ETHERNET\SNTP.o
 .debug_line    0x00004fcf      0x148 Objects - TCPIP Demo App - C32 - PIC32_ENET_SK_DM320004_INTERNAL_ETHERNET\SPIEEPROM.o
 .debug_line    0x00005117      0x148 Objects - TCPIP Demo App - C32 - PIC32_ENET_SK_DM320004_INTERNAL_ETHERNET\SPIFlash.o
 .debug_line    0x0000525f      0x148 Objects - TCPIP Demo App - C32 - PIC32_ENET_SK_DM320004_INTERNAL_ETHERNET\SPIRAM.o
 .debug_line    0x000053a7      0x148 Objects - TCPIP Demo App - C32 - PIC32_ENET_SK_DM320004_INTERNAL_ETHERNET\SSL.o
 .debug_line    0x000054ef      0x1fb Objects - TCPIP Demo App - C32 - PIC32_ENET_SK_DM320004_INTERNAL_ETHERNET\StackTsk.o
 .debug_line    0x000056ea      0xad3 Objects - TCPIP Demo App - C32 - PIC32_ENET_SK_DM320004_INTERNAL_ETHERNET\TCP.o
 .debug_line    0x000061bd      0x230 Objects - TCPIP Demo App - C32 - PIC32_ENET_SK_DM320004_INTERNAL_ETHERNET\TCPPerformanceTest.o
 .debug_line    0x000063ed      0x285 Objects - TCPIP Demo App - C32 - PIC32_ENET_SK_DM320004_INTERNAL_ETHERNET\Telnet.o
 .debug_line    0x00006672      0x148 Objects - TCPIP Demo App - C32 - PIC32_ENET_SK_DM320004_INTERNAL_ETHERNET\TFTPc.o
 .debug_line    0x000067ba      0x1cb Objects - TCPIP Demo App - C32 - PIC32_ENET_SK_DM320004_INTERNAL_ETHERNET\Tick.o
 .debug_line    0x00006985      0x148 Objects - TCPIP Demo App - C32 - PIC32_ENET_SK_DM320004_INTERNAL_ETHERNET\UART2TCPBridge.o
 .debug_line    0x00006acd      0x148 Objects - TCPIP Demo App - C32 - PIC32_ENET_SK_DM320004_INTERNAL_ETHERNET\UART.o
 .debug_line    0x00006c15      0x2fc Objects - TCPIP Demo App - C32 - PIC32_ENET_SK_DM320004_INTERNAL_ETHERNET\UDP.o
 .debug_line    0x00006f11      0x148 Objects - TCPIP Demo App - C32 - PIC32_ENET_SK_DM320004_INTERNAL_ETHERNET\UDPPerformanceTest.o
 .debug_line    0x00007059      0x148 Objects - TCPIP Demo App - C32 - PIC32_ENET_SK_DM320004_INTERNAL_ETHERNET\ZeroconfHelper.o
 .debug_line    0x000071a1      0x148 Objects - TCPIP Demo App - C32 - PIC32_ENET_SK_DM320004_INTERNAL_ETHERNET\ZeroconfLinkLocal.o
 .debug_line    0x000072e9      0x148 Objects - TCPIP Demo App - C32 - PIC32_ENET_SK_DM320004_INTERNAL_ETHERNET\ZeroconfMulticastDNS.o
 .debug_line    0x00007431      0x5f5 Objects - TCPIP Demo App - C32 - PIC32_ENET_SK_DM320004_INTERNAL_ETHERNET\CustomHTTPApp.o
 .debug_line    0x00007a26      0x148 Objects - TCPIP Demo App - C32 - PIC32_ENET_SK_DM320004_INTERNAL_ETHERNET\CustomSNMPApp.o
 .debug_line    0x00007b6e      0x148 Objects - TCPIP Demo App - C32 - PIC32_ENET_SK_DM320004_INTERNAL_ETHERNET\CustomSSLCert.o
 .debug_line    0x00007cb6      0x314 Objects - TCPIP Demo App - C32 - PIC32_ENET_SK_DM320004_INTERNAL_ETHERNET\MainDemo.o
 .debug_line    0x00007fca      0x1db Objects - TCPIP Demo App - C32 - PIC32_ENET_SK_DM320004_INTERNAL_ETHERNET\BerkeleyTCPClientDemo.o
 .debug_line    0x000081a5      0x1e2 Objects - TCPIP Demo App - C32 - PIC32_ENET_SK_DM320004_INTERNAL_ETHERNET\BerkeleyTCPServerDemo.o
 .debug_line    0x00008387      0x201 Objects - TCPIP Demo App - C32 - PIC32_ENET_SK_DM320004_INTERNAL_ETHERNET\BerkeleyUDPClientDemo.o
 .debug_line    0x00008588      0x1da Objects - TCPIP Demo App - C32 - PIC32_ENET_SK_DM320004_INTERNAL_ETHERNET\GenericTCPClient.o
 .debug_line    0x00008762      0x1d1 Objects - TCPIP Demo App - C32 - PIC32_ENET_SK_DM320004_INTERNAL_ETHERNET\GenericTCPServer.o
 .debug_line    0x00008933      0x148 Objects - TCPIP Demo App - C32 - PIC32_ENET_SK_DM320004_INTERNAL_ETHERNET\LegacyHTTPApp.o
 .debug_line    0x00008a7b      0x182 Objects - TCPIP Demo App - C32 - PIC32_ENET_SK_DM320004_INTERNAL_ETHERNET\PingDemo.o
 .debug_line    0x00008bfd      0x1c6 Objects - TCPIP Demo App - C32 - PIC32_ENET_SK_DM320004_INTERNAL_ETHERNET\SMTPDemo.o
 .debug_line    0x00008dc3      0x148 Objects - TCPIP Demo App - C32 - PIC32_ENET_SK_DM320004_INTERNAL_ETHERNET\UARTConfig.o
 .debug_line    0x00008f0b      0x156 Objects - TCPIP Demo App - C32 - PIC32_ENET_SK_DM320004_INTERNAL_ETHERNET\MPFSImg2.o
 .debug_line    0x00009061      0x148 Objects - TCPIP Demo App - C32 - PIC32_ENET_SK_DM320004_INTERNAL_ETHERNET\MPFSImg.o
 .debug_line    0x000091a9      0x1b9 C:/Program Files (x86)/Microchip/MPLAB C32 Suite/bin/../lib/gcc/pic32mx/3.4.4/../../../../pic32mx/lib/size\libc.a(atoi.o)
 .debug_line    0x00009362      0x1c0 C:/Program Files (x86)/Microchip/MPLAB C32 Suite/bin/../lib/gcc/pic32mx/3.4.4/../../../../pic32mx/lib/size\libc.a(atol.o)
 .debug_line    0x00009522      0x1a7 C:/Program Files (x86)/Microchip/MPLAB C32 Suite/bin/../lib/gcc/pic32mx/3.4.4/../../../../pic32mx/lib/size\libc.a(calloc.o)
 .debug_line    0x000096c9      0x102 C:/Program Files (x86)/Microchip/MPLAB C32 Suite/bin/../lib/gcc/pic32mx/3.4.4/../../../../pic32mx/lib/size\libc.a(ctype.o)
 .debug_line    0x000097cb      0x25b C:/Program Files (x86)/Microchip/MPLAB C32 Suite/bin/../lib/gcc/pic32mx/3.4.4/../../../../pic32mx/lib/size\libc.a(malloc.o)
 .debug_line    0x00009a26      0x1a1 C:/Program Files (x86)/Microchip/MPLAB C32 Suite/bin/../lib/gcc/pic32mx/3.4.4/../../../../pic32mx/lib/size\libc.a(strchr.o)
 .debug_line    0x00009bc7      0x1a9 C:/Program Files (x86)/Microchip/MPLAB C32 Suite/bin/../lib/gcc/pic32mx/3.4.4/../../../../pic32mx/lib/size\libc.a(strstr.o)
 .debug_line    0x00009d70      0x3a9 C:/Program Files (x86)/Microchip/MPLAB C32 Suite/bin/../lib/gcc/pic32mx/3.4.4/../../../../pic32mx/lib/size\libc.a(sbrk.o)
 .debug_line    0x0000a119       0xbc C:/Program Files (x86)/Microchip/MPLAB C32 Suite/bin/../lib/gcc/pic32mx/3.4.4/../../../../pic32mx/lib/size\libc.a(default-bootstrap-exception-handler.o)
 .debug_line    0x0000a1d5       0xa9 C:/Program Files (x86)/Microchip/MPLAB C32 Suite/bin/../lib/gcc/pic32mx/3.4.4/../../../../pic32mx/lib/size\libc.a(default-on-reset.o)
 .debug_line    0x0000a27e       0xad C:/Program Files (x86)/Microchip/MPLAB C32 Suite/bin/../lib/gcc/pic32mx/3.4.4/../../../../pic32mx/lib/size\libc.a(default-on-bootstrap.o)
 .debug_line    0x0000a32b      0x17c C:/Program Files (x86)/Microchip/MPLAB C32 Suite/bin/../lib/gcc/pic32mx/3.4.4/../../../../pic32mx/lib/size\libc.a(errno.o)
 .debug_line    0x0000a4a7      0x1a8 C:/Program Files (x86)/Microchip/MPLAB C32 Suite/bin/../lib/gcc/pic32mx/3.4.4/../../../../pic32mx/lib/size\libc.a(strncmp.o)
 .debug_line    0x0000a64f       0xa9 C:/Program Files (x86)/Microchip/MPLAB C32 Suite/bin/../lib/gcc/pic32mx/3.4.4/../../../../pic32mx/lib/size\libmchp_peripheral.a(read_core_timer_lib.o)
 .debug_line    0x0000a6f8       0xa6 C:/Program Files (x86)/Microchip/MPLAB C32 Suite/bin/../lib/gcc/pic32mx/3.4.4/../../../../pic32mx/lib/size\libmchp_peripheral_32MX795F512L.a(eth_ack_packet_lib.o)
 .debug_line    0x0000a79e       0xab C:/Program Files (x86)/Microchip/MPLAB C32 Suite/bin/../lib/gcc/pic32mx/3.4.4/../../../../pic32mx/lib/size\libmchp_peripheral_32MX795F512L.a(eth_descriptors_add_lib.o)
 .debug_line    0x0000a849       0xa0 C:/Program Files (x86)/Microchip/MPLAB C32 Suite/bin/../lib/gcc/pic32mx/3.4.4/../../../../pic32mx/lib/size\libmchp_peripheral_32MX795F512L.a(eth_init_lib.o)
 .debug_line    0x0000a8e9       0xa4 C:/Program Files (x86)/Microchip/MPLAB C32 Suite/bin/../lib/gcc/pic32mx/3.4.4/../../../../pic32mx/lib/size\libmchp_peripheral_32MX795F512L.a(eth_mac_open_lib.o)
 .debug_line    0x0000a98d       0xaf C:/Program Files (x86)/Microchip/MPLAB C32 Suite/bin/../lib/gcc/pic32mx/3.4.4/../../../../pic32mx/lib/size\libmchp_peripheral_32MX795F512L.a(eth_mac_set_address_max_lib.o)
 .debug_line    0x0000aa3c       0xad C:/Program Files (x86)/Microchip/MPLAB C32 Suite/bin/../lib/gcc/pic32mx/3.4.4/../../../../pic32mx/lib/size\libmchp_peripheral_32MX795F512L.a(eth_rx_buffers_append_lib.o)
 .debug_line    0x0000aae9       0xa6 C:/Program Files (x86)/Microchip/MPLAB C32 Suite/bin/../lib/gcc/pic32mx/3.4.4/../../../../pic32mx/lib/size\libmchp_peripheral_32MX795F512L.a(eth_rx_filters_lib.o)
 .debug_line    0x0000ab8f       0xa9 C:/Program Files (x86)/Microchip/MPLAB C32 Suite/bin/../lib/gcc/pic32mx/3.4.4/../../../../pic32mx/lib/size\libmchp_peripheral_32MX795F512L.a(eth_rx_get_packet_lib.o)
 .debug_line    0x0000ac38       0xae C:/Program Files (x86)/Microchip/MPLAB C32 Suite/bin/../lib/gcc/pic32mx/3.4.4/../../../../pic32mx/lib/size\libmchp_peripheral_32MX795F512L.a(eth_rx_set_buffer_size_lib.o)
 .debug_line    0x0000ace6       0xa5 C:/Program Files (x86)/Microchip/MPLAB C32 Suite/bin/../lib/gcc/pic32mx/3.4.4/../../../../pic32mx/lib/size\libmchp_peripheral_32MX795F512L.a(eth_tx_packet_lib.o)
 .debug_line    0x0000ad8b       0xad C:/Program Files (x86)/Microchip/MPLAB C32 Suite/bin/../lib/gcc/pic32mx/3.4.4/../../../../pic32mx/lib/size\libmchp_peripheral_32MX795F512L.a(_eth_append_busy_list_lib.o)
 .debug_line    0x0000ae38       0xa3 C:/Program Files (x86)/Microchip/MPLAB C32 Suite/bin/../lib/gcc/pic32mx/3.4.4/../../../../pic32mx/lib/size\libmchp_peripheral_32MX795F512L.a(eth_miim_access.o)
 .debug_line    0x0000aedb       0xa4 C:/Program Files (x86)/Microchip/MPLAB C32 Suite/bin/../lib/gcc/pic32mx/3.4.4/../../../../pic32mx/lib/size\libmchp_peripheral_32MX795F512L.a(soft_reset_lib.o)
 .debug_line    0x0000af7f       0x9d C:/Program Files (x86)/Microchip/MPLAB C32 Suite/bin/../lib/gcc/pic32mx/3.4.4/../../../../pic32mx/lib/size\libmchp_peripheral_32MX795F512L.a(pcache.o)
 .debug_line    0x0000b01c       0xae C:/Program Files (x86)/Microchip/MPLAB C32 Suite/bin/../lib/gcc/pic32mx/3.4.4/../../../../pic32mx/lib/size\libmchp_peripheral_32MX795F512L.a(int_disable_interrupts_lib.o)
 .debug_line    0x0000b0ca       0xae C:/Program Files (x86)/Microchip/MPLAB C32 Suite/bin/../lib/gcc/pic32mx/3.4.4/../../../../pic32mx/lib/size\libmchp_peripheral_32MX795F512L.a(int_restore_interrupts_lib.o)
 .debug_line    0x0000b178       0xa9 C:/Program Files (x86)/Microchip/MPLAB C32 Suite/bin/../lib/gcc/pic32mx/3.4.4/../../../../pic32mx/lib/size\libmchp_peripheral_32MX795F512L.a(int_enable_mv_int_lib.o)
 .debug_line    0x0000b221       0x9f C:/Program Files (x86)/Microchip/MPLAB C32 Suite/bin/../lib/gcc/pic32mx/3.4.4/../../../../pic32mx/lib/size\libmchp_peripheral_32MX795F512L.a(int_tbl_lib.o)
 .debug_line    0x0000b2c0       0xb2 C:/Program Files (x86)/Microchip/MPLAB C32 Suite/bin/../lib/gcc/pic32mx/3.4.4/../../../../pic32mx/lib/size\libmchp_peripheral_32MX795F512L.a(port_set_pins_digital_in_lib.o)
 .debug_line    0x0000b372       0xb3 C:/Program Files (x86)/Microchip/MPLAB C32 Suite/bin/../lib/gcc/pic32mx/3.4.4/../../../../pic32mx/lib/size\libmchp_peripheral_32MX795F512L.a(port_set_pins_digital_out_lib.o)
 .debug_line    0x0000b425        0x0 C:/Program Files (x86)/Microchip/MPLAB C32 Suite/bin/../lib/gcc/pic32mx/3.4.4/../../../../pic32mx/lib/size\libmchp_peripheral_32MX795F512L.a(_ports_tbl_libp.o)
 .debug_line    0x0000b425       0xad C:/Program Files (x86)/Microchip/MPLAB C32 Suite/bin/../lib/gcc/pic32mx/3.4.4/../../../../pic32mx/lib/size\libmchp_peripheral_32MX795F512L.a(int_enable_interrupts_lib.o)

.debug_frame    0x00000000     0x2cc0
 *(.debug_frame)
 .debug_frame   0x00000000       0x50 Objects - TCPIP Demo App - C32 - PIC32_ENET_SK_DM320004_INTERNAL_ETHERNET\Announce.o
 .debug_frame   0x00000050       0xc8 Objects - TCPIP Demo App - C32 - PIC32_ENET_SK_DM320004_INTERNAL_ETHERNET\ARP.o
 .debug_frame   0x00000118      0x1a8 Objects - TCPIP Demo App - C32 - PIC32_ENET_SK_DM320004_INTERNAL_ETHERNET\BerkeleyAPI.o
 .debug_frame   0x000002c0       0x4c Objects - TCPIP Demo App - C32 - PIC32_ENET_SK_DM320004_INTERNAL_ETHERNET\Delay.o
 .debug_frame   0x0000030c       0xcc Objects - TCPIP Demo App - C32 - PIC32_ENET_SK_DM320004_INTERNAL_ETHERNET\DNS.o
 .debug_frame   0x000003d8       0xc4 Objects - TCPIP Demo App - C32 - PIC32_ENET_SK_DM320004_INTERNAL_ETHERNET\DynDNS.o
 .debug_frame   0x0000049c      0x188 Objects - TCPIP Demo App - C32 - PIC32_ENET_SK_DM320004_INTERNAL_ETHERNET\ETHPIC32ExtPhy.o
 .debug_frame   0x00000624       0x88 Objects - TCPIP Demo App - C32 - PIC32_ENET_SK_DM320004_INTERNAL_ETHERNET\ETHPIC32ExtPhyDP83848.o
 .debug_frame   0x000006ac      0x300 Objects - TCPIP Demo App - C32 - PIC32_ENET_SK_DM320004_INTERNAL_ETHERNET\ETHPIC32IntMac.o
 .debug_frame   0x000009ac       0xa8 Objects - TCPIP Demo App - C32 - PIC32_ENET_SK_DM320004_INTERNAL_ETHERNET\Hashes.o
 .debug_frame   0x00000a54      0x214 Objects - TCPIP Demo App - C32 - PIC32_ENET_SK_DM320004_INTERNAL_ETHERNET\Helpers.o
 .debug_frame   0x00000c68      0x238 Objects - TCPIP Demo App - C32 - PIC32_ENET_SK_DM320004_INTERNAL_ETHERNET\HTTP2.o
 .debug_frame   0x00000ea0       0xc8 Objects - TCPIP Demo App - C32 - PIC32_ENET_SK_DM320004_INTERNAL_ETHERNET\ICMP.o
 .debug_frame   0x00000f68       0x90 Objects - TCPIP Demo App - C32 - PIC32_ENET_SK_DM320004_INTERNAL_ETHERNET\IP.o
 .debug_frame   0x00000ff8      0x280 Objects - TCPIP Demo App - C32 - PIC32_ENET_SK_DM320004_INTERNAL_ETHERNET\MPFS2.o
 .debug_frame   0x00001278       0x70 Objects - TCPIP Demo App - C32 - PIC32_ENET_SK_DM320004_INTERNAL_ETHERNET\NBNS.o
 .debug_frame   0x000012e8       0x30 Objects - TCPIP Demo App - C32 - PIC32_ENET_SK_DM320004_INTERNAL_ETHERNET\Reboot.o
 .debug_frame   0x00001318      0x19c Objects - TCPIP Demo App - C32 - PIC32_ENET_SK_DM320004_INTERNAL_ETHERNET\SMTP.o
 .debug_frame   0x000014b4       0x50 Objects - TCPIP Demo App - C32 - PIC32_ENET_SK_DM320004_INTERNAL_ETHERNET\SNTP.o
 .debug_frame   0x00001504       0x70 Objects - TCPIP Demo App - C32 - PIC32_ENET_SK_DM320004_INTERNAL_ETHERNET\StackTsk.o
 .debug_frame   0x00001574      0x420 Objects - TCPIP Demo App - C32 - PIC32_ENET_SK_DM320004_INTERNAL_ETHERNET\TCP.o
 .debug_frame   0x00001994       0x70 Objects - TCPIP Demo App - C32 - PIC32_ENET_SK_DM320004_INTERNAL_ETHERNET\TCPPerformanceTest.o
 .debug_frame   0x00001a04       0x34 Objects - TCPIP Demo App - C32 - PIC32_ENET_SK_DM320004_INTERNAL_ETHERNET\Telnet.o
 .debug_frame   0x00001a38       0xe0 Objects - TCPIP Demo App - C32 - PIC32_ENET_SK_DM320004_INTERNAL_ETHERNET\Tick.o
 .debug_frame   0x00001b18      0x228 Objects - TCPIP Demo App - C32 - PIC32_ENET_SK_DM320004_INTERNAL_ETHERNET\UDP.o
 .debug_frame   0x00001d40      0x534 Objects - TCPIP Demo App - C32 - PIC32_ENET_SK_DM320004_INTERNAL_ETHERNET\CustomHTTPApp.o
 .debug_frame   0x00002274       0xcc Objects - TCPIP Demo App - C32 - PIC32_ENET_SK_DM320004_INTERNAL_ETHERNET\MainDemo.o
 .debug_frame   0x00002340       0x30 Objects - TCPIP Demo App - C32 - PIC32_ENET_SK_DM320004_INTERNAL_ETHERNET\BerkeleyTCPClientDemo.o
 .debug_frame   0x00002370       0x30 Objects - TCPIP Demo App - C32 - PIC32_ENET_SK_DM320004_INTERNAL_ETHERNET\BerkeleyTCPServerDemo.o
 .debug_frame   0x000023a0       0x50 Objects - TCPIP Demo App - C32 - PIC32_ENET_SK_DM320004_INTERNAL_ETHERNET\BerkeleyUDPClientDemo.o
 .debug_frame   0x000023f0       0x30 Objects - TCPIP Demo App - C32 - PIC32_ENET_SK_DM320004_INTERNAL_ETHERNET\GenericTCPClient.o
 .debug_frame   0x00002420       0x30 Objects - TCPIP Demo App - C32 - PIC32_ENET_SK_DM320004_INTERNAL_ETHERNET\GenericTCPServer.o
 .debug_frame   0x00002450       0x30 Objects - TCPIP Demo App - C32 - PIC32_ENET_SK_DM320004_INTERNAL_ETHERNET\PingDemo.o
 .debug_frame   0x00002480       0x30 Objects - TCPIP Demo App - C32 - PIC32_ENET_SK_DM320004_INTERNAL_ETHERNET\SMTPDemo.o
 .debug_frame   0x000024b0       0x20 C:/Program Files (x86)/Microchip/MPLAB C32 Suite/bin/../lib/gcc/pic32mx/3.4.4/../../../../pic32mx/lib/size\libc.a(atoi.o)
 .debug_frame   0x000024d0       0x20 C:/Program Files (x86)/Microchip/MPLAB C32 Suite/bin/../lib/gcc/pic32mx/3.4.4/../../../../pic32mx/lib/size\libc.a(atol.o)
 .debug_frame   0x000024f0       0x2c C:/Program Files (x86)/Microchip/MPLAB C32 Suite/bin/../lib/gcc/pic32mx/3.4.4/../../../../pic32mx/lib/size\libc.a(calloc.o)
 .debug_frame   0x0000251c       0x68 C:/Program Files (x86)/Microchip/MPLAB C32 Suite/bin/../lib/gcc/pic32mx/3.4.4/../../../../pic32mx/lib/size\libc.a(malloc.o)
 .debug_frame   0x00002584       0x20 C:/Program Files (x86)/Microchip/MPLAB C32 Suite/bin/../lib/gcc/pic32mx/3.4.4/../../../../pic32mx/lib/size\libc.a(strchr.o)
 .debug_frame   0x000025a4       0x30 C:/Program Files (x86)/Microchip/MPLAB C32 Suite/bin/../lib/gcc/pic32mx/3.4.4/../../../../pic32mx/lib/size\libc.a(strstr.o)
 .debug_frame   0x000025d4       0x8c C:/Program Files (x86)/Microchip/MPLAB C32 Suite/bin/../lib/gcc/pic32mx/3.4.4/../../../../pic32mx/lib/size\libc.a(sbrk.o)
 .debug_frame   0x00002660       0x20 C:/Program Files (x86)/Microchip/MPLAB C32 Suite/bin/../lib/gcc/pic32mx/3.4.4/../../../../pic32mx/lib/size\libc.a(default-bootstrap-exception-handler.o)
 .debug_frame   0x00002680       0x20 C:/Program Files (x86)/Microchip/MPLAB C32 Suite/bin/../lib/gcc/pic32mx/3.4.4/../../../../pic32mx/lib/size\libc.a(default-on-reset.o)
 .debug_frame   0x000026a0       0x20 C:/Program Files (x86)/Microchip/MPLAB C32 Suite/bin/../lib/gcc/pic32mx/3.4.4/../../../../pic32mx/lib/size\libc.a(default-on-bootstrap.o)
 .debug_frame   0x000026c0       0x20 C:/Program Files (x86)/Microchip/MPLAB C32 Suite/bin/../lib/gcc/pic32mx/3.4.4/../../../../pic32mx/lib/size\libc.a(strncmp.o)
 .debug_frame   0x000026e0       0x20 C:/Program Files (x86)/Microchip/MPLAB C32 Suite/bin/../lib/gcc/pic32mx/3.4.4/../../../../pic32mx/lib/size\libmchp_peripheral.a(read_core_timer_lib.o)
 .debug_frame   0x00002700       0xc4 C:/Program Files (x86)/Microchip/MPLAB C32 Suite/bin/../lib/gcc/pic32mx/3.4.4/../../../../pic32mx/lib/size\libmchp_peripheral_32MX795F512L.a(eth_ack_packet_lib.o)
 .debug_frame   0x000027c4       0x64 C:/Program Files (x86)/Microchip/MPLAB C32 Suite/bin/../lib/gcc/pic32mx/3.4.4/../../../../pic32mx/lib/size\libmchp_peripheral_32MX795F512L.a(eth_descriptors_add_lib.o)
 .debug_frame   0x00002828       0x28 C:/Program Files (x86)/Microchip/MPLAB C32 Suite/bin/../lib/gcc/pic32mx/3.4.4/../../../../pic32mx/lib/size\libmchp_peripheral_32MX795F512L.a(eth_init_lib.o)
 .debug_frame   0x00002850       0x20 C:/Program Files (x86)/Microchip/MPLAB C32 Suite/bin/../lib/gcc/pic32mx/3.4.4/../../../../pic32mx/lib/size\libmchp_peripheral_32MX795F512L.a(eth_mac_open_lib.o)
 .debug_frame   0x00002870       0x50 C:/Program Files (x86)/Microchip/MPLAB C32 Suite/bin/../lib/gcc/pic32mx/3.4.4/../../../../pic32mx/lib/size\libmchp_peripheral_32MX795F512L.a(eth_mac_set_address_max_lib.o)
 .debug_frame   0x000028c0       0x2c C:/Program Files (x86)/Microchip/MPLAB C32 Suite/bin/../lib/gcc/pic32mx/3.4.4/../../../../pic32mx/lib/size\libmchp_peripheral_32MX795F512L.a(eth_rx_buffers_append_lib.o)
 .debug_frame   0x000028ec       0x70 C:/Program Files (x86)/Microchip/MPLAB C32 Suite/bin/../lib/gcc/pic32mx/3.4.4/../../../../pic32mx/lib/size\libmchp_peripheral_32MX795F512L.a(eth_rx_filters_lib.o)
 .debug_frame   0x0000295c       0x3c C:/Program Files (x86)/Microchip/MPLAB C32 Suite/bin/../lib/gcc/pic32mx/3.4.4/../../../../pic32mx/lib/size\libmchp_peripheral_32MX795F512L.a(eth_rx_get_packet_lib.o)
 .debug_frame   0x00002998       0x20 C:/Program Files (x86)/Microchip/MPLAB C32 Suite/bin/../lib/gcc/pic32mx/3.4.4/../../../../pic32mx/lib/size\libmchp_peripheral_32MX795F512L.a(eth_rx_set_buffer_size_lib.o)
 .debug_frame   0x000029b8       0xa4 C:/Program Files (x86)/Microchip/MPLAB C32 Suite/bin/../lib/gcc/pic32mx/3.4.4/../../../../pic32mx/lib/size\libmchp_peripheral_32MX795F512L.a(eth_tx_packet_lib.o)
 .debug_frame   0x00002a5c       0x34 C:/Program Files (x86)/Microchip/MPLAB C32 Suite/bin/../lib/gcc/pic32mx/3.4.4/../../../../pic32mx/lib/size\libmchp_peripheral_32MX795F512L.a(_eth_append_busy_list_lib.o)
 .debug_frame   0x00002a90       0x70 C:/Program Files (x86)/Microchip/MPLAB C32 Suite/bin/../lib/gcc/pic32mx/3.4.4/../../../../pic32mx/lib/size\libmchp_peripheral_32MX795F512L.a(eth_miim_access.o)
 .debug_frame   0x00002b00       0x28 C:/Program Files (x86)/Microchip/MPLAB C32 Suite/bin/../lib/gcc/pic32mx/3.4.4/../../../../pic32mx/lib/size\libmchp_peripheral_32MX795F512L.a(soft_reset_lib.o)
 .debug_frame   0x00002b28       0x30 C:/Program Files (x86)/Microchip/MPLAB C32 Suite/bin/../lib/gcc/pic32mx/3.4.4/../../../../pic32mx/lib/size\libmchp_peripheral_32MX795F512L.a(pcache.o)
 .debug_frame   0x00002b58       0x20 C:/Program Files (x86)/Microchip/MPLAB C32 Suite/bin/../lib/gcc/pic32mx/3.4.4/../../../../pic32mx/lib/size\libmchp_peripheral_32MX795F512L.a(int_disable_interrupts_lib.o)
 .debug_frame   0x00002b78       0x20 C:/Program Files (x86)/Microchip/MPLAB C32 Suite/bin/../lib/gcc/pic32mx/3.4.4/../../../../pic32mx/lib/size\libmchp_peripheral_32MX795F512L.a(int_restore_interrupts_lib.o)
 .debug_frame   0x00002b98       0x28 C:/Program Files (x86)/Microchip/MPLAB C32 Suite/bin/../lib/gcc/pic32mx/3.4.4/../../../../pic32mx/lib/size\libmchp_peripheral_32MX795F512L.a(int_enable_mv_int_lib.o)
 .debug_frame   0x00002bc0       0xa0 C:/Program Files (x86)/Microchip/MPLAB C32 Suite/bin/../lib/gcc/pic32mx/3.4.4/../../../../pic32mx/lib/size\libmchp_peripheral_32MX795F512L.a(int_tbl_lib.o)
 .debug_frame   0x00002c60       0x20 C:/Program Files (x86)/Microchip/MPLAB C32 Suite/bin/../lib/gcc/pic32mx/3.4.4/../../../../pic32mx/lib/size\libmchp_peripheral_32MX795F512L.a(port_set_pins_digital_in_lib.o)
 .debug_frame   0x00002c80       0x20 C:/Program Files (x86)/Microchip/MPLAB C32 Suite/bin/../lib/gcc/pic32mx/3.4.4/../../../../pic32mx/lib/size\libmchp_peripheral_32MX795F512L.a(port_set_pins_digital_out_lib.o)
 .debug_frame   0x00002ca0       0x20 C:/Program Files (x86)/Microchip/MPLAB C32 Suite/bin/../lib/gcc/pic32mx/3.4.4/../../../../pic32mx/lib/size\libmchp_peripheral_32MX795F512L.a(int_enable_interrupts_lib.o)

.debug_str      0x00000000     0x1f20
 *(.debug_str)
 .debug_str     0x00000000       0x26 Objects - TCPIP Demo App - C32 - PIC32_ENET_SK_DM320004_INTERNAL_ETHERNET\Announce.o
 .debug_str     0x00000026       0x12 Objects - TCPIP Demo App - C32 - PIC32_ENET_SK_DM320004_INTERNAL_ETHERNET\ARCFOUR.o
 .debug_str     0x00000038       0x20 Objects - TCPIP Demo App - C32 - PIC32_ENET_SK_DM320004_INTERNAL_ETHERNET\ARP.o
 .debug_str     0x00000058       0x12 Objects - TCPIP Demo App - C32 - PIC32_ENET_SK_DM320004_INTERNAL_ETHERNET\AutoIP.o
 .debug_str     0x0000006a       0x54 Objects - TCPIP Demo App - C32 - PIC32_ENET_SK_DM320004_INTERNAL_ETHERNET\BerkeleyAPI.o
 .debug_str     0x000000be       0x12 Objects - TCPIP Demo App - C32 - PIC32_ENET_SK_DM320004_INTERNAL_ETHERNET\BigInt.o
 .debug_str     0x000000d0       0x12 Objects - TCPIP Demo App - C32 - PIC32_ENET_SK_DM320004_INTERNAL_ETHERNET\Delay.o
 .debug_str     0x000000e2       0x12 Objects - TCPIP Demo App - C32 - PIC32_ENET_SK_DM320004_INTERNAL_ETHERNET\DHCP.o
 .debug_str     0x000000f4       0x12 Objects - TCPIP Demo App - C32 - PIC32_ENET_SK_DM320004_INTERNAL_ETHERNET\DHCPs.o
 .debug_str     0x00000106       0x12 Objects - TCPIP Demo App - C32 - PIC32_ENET_SK_DM320004_INTERNAL_ETHERNET\DNS.o
 .debug_str     0x00000118       0x12 Objects - TCPIP Demo App - C32 - PIC32_ENET_SK_DM320004_INTERNAL_ETHERNET\DNSs.o
 .debug_str     0x0000012a       0x4b Objects - TCPIP Demo App - C32 - PIC32_ENET_SK_DM320004_INTERNAL_ETHERNET\DynDNS.o
 .debug_str     0x00000175       0x12 Objects - TCPIP Demo App - C32 - PIC32_ENET_SK_DM320004_INTERNAL_ETHERNET\ENC28J60.o
 .debug_str     0x00000187       0x12 Objects - TCPIP Demo App - C32 - PIC32_ENET_SK_DM320004_INTERNAL_ETHERNET\ENCX24J600.o
 .debug_str     0x00000199       0x42 Objects - TCPIP Demo App - C32 - PIC32_ENET_SK_DM320004_INTERNAL_ETHERNET\ETHPIC32ExtPhy.o
 .debug_str     0x000001db       0x12 Objects - TCPIP Demo App - C32 - PIC32_ENET_SK_DM320004_INTERNAL_ETHERNET\ETHPIC32ExtPhyDP83848.o
 .debug_str     0x000001ed       0x37 Objects - TCPIP Demo App - C32 - PIC32_ENET_SK_DM320004_INTERNAL_ETHERNET\ETHPIC32IntMac.o
 .debug_str     0x00000224       0x12 Objects - TCPIP Demo App - C32 - PIC32_ENET_SK_DM320004_INTERNAL_ETHERNET\FileSystem.o
 .debug_str     0x00000236       0x12 Objects - TCPIP Demo App - C32 - PIC32_ENET_SK_DM320004_INTERNAL_ETHERNET\FTP.o
 .debug_str     0x00000248       0x19 Objects - TCPIP Demo App - C32 - PIC32_ENET_SK_DM320004_INTERNAL_ETHERNET\Hashes.o
 .debug_str     0x00000261       0x3c Objects - TCPIP Demo App - C32 - PIC32_ENET_SK_DM320004_INTERNAL_ETHERNET\Helpers.o
 .debug_str     0x0000029d       0x2a Objects - TCPIP Demo App - C32 - PIC32_ENET_SK_DM320004_INTERNAL_ETHERNET\HTTP2.o
 .debug_str     0x000002c7       0x12 Objects - TCPIP Demo App - C32 - PIC32_ENET_SK_DM320004_INTERNAL_ETHERNET\HTTP.o
 .debug_str     0x000002d9       0x12 Objects - TCPIP Demo App - C32 - PIC32_ENET_SK_DM320004_INTERNAL_ETHERNET\ICMP.o
 .debug_str     0x000002eb       0x1b Objects - TCPIP Demo App - C32 - PIC32_ENET_SK_DM320004_INTERNAL_ETHERNET\IP.o
 .debug_str     0x00000306       0x12 Objects - TCPIP Demo App - C32 - PIC32_ENET_SK_DM320004_INTERNAL_ETHERNET\LCDBlocking.o
 .debug_str     0x00000318       0x2b Objects - TCPIP Demo App - C32 - PIC32_ENET_SK_DM320004_INTERNAL_ETHERNET\MPFS2.o
 .debug_str     0x00000343       0x12 Objects - TCPIP Demo App - C32 - PIC32_ENET_SK_DM320004_INTERNAL_ETHERNET\MPFS.o
 .debug_str     0x00000355       0x1d Objects - TCPIP Demo App - C32 - PIC32_ENET_SK_DM320004_INTERNAL_ETHERNET\NBNS.o
 .debug_str     0x00000372       0x12 Objects - TCPIP Demo App - C32 - PIC32_ENET_SK_DM320004_INTERNAL_ETHERNET\Random.o
 .debug_str     0x00000384       0x12 Objects - TCPIP Demo App - C32 - PIC32_ENET_SK_DM320004_INTERNAL_ETHERNET\Reboot.o
 .debug_str     0x00000396       0x12 Objects - TCPIP Demo App - C32 - PIC32_ENET_SK_DM320004_INTERNAL_ETHERNET\RSA.o
 .debug_str     0x000003a8       0x5a Objects - TCPIP Demo App - C32 - PIC32_ENET_SK_DM320004_INTERNAL_ETHERNET\SMTP.o
 .debug_str     0x00000402       0x12 Objects - TCPIP Demo App - C32 - PIC32_ENET_SK_DM320004_INTERNAL_ETHERNET\SNMP.o
 .debug_str     0x00000414       0x12 Objects - TCPIP Demo App - C32 - PIC32_ENET_SK_DM320004_INTERNAL_ETHERNET\SNMPv3.o
 .debug_str     0x00000426       0x12 Objects - TCPIP Demo App - C32 - PIC32_ENET_SK_DM320004_INTERNAL_ETHERNET\SNMPv3USM.o
 .debug_str     0x00000438       0x12 Objects - TCPIP Demo App - C32 - PIC32_ENET_SK_DM320004_INTERNAL_ETHERNET\SNTP.o
 .debug_str     0x0000044a       0x12 Objects - TCPIP Demo App - C32 - PIC32_ENET_SK_DM320004_INTERNAL_ETHERNET\SPIEEPROM.o
 .debug_str     0x0000045c       0x12 Objects - TCPIP Demo App - C32 - PIC32_ENET_SK_DM320004_INTERNAL_ETHERNET\SPIFlash.o
 .debug_str     0x0000046e       0x12 Objects - TCPIP Demo App - C32 - PIC32_ENET_SK_DM320004_INTERNAL_ETHERNET\SPIRAM.o
 .debug_str     0x00000480       0x12 Objects - TCPIP Demo App - C32 - PIC32_ENET_SK_DM320004_INTERNAL_ETHERNET\SSL.o
 .debug_str     0x00000492       0x12 Objects - TCPIP Demo App - C32 - PIC32_ENET_SK_DM320004_INTERNAL_ETHERNET\StackTsk.o
 .debug_str     0x000004a4       0xbe Objects - TCPIP Demo App - C32 - PIC32_ENET_SK_DM320004_INTERNAL_ETHERNET\TCP.o
 .debug_str     0x00000562       0x27 Objects - TCPIP Demo App - C32 - PIC32_ENET_SK_DM320004_INTERNAL_ETHERNET\TCPPerformanceTest.o
 .debug_str     0x00000589       0x12 Objects - TCPIP Demo App - C32 - PIC32_ENET_SK_DM320004_INTERNAL_ETHERNET\Telnet.o
 .debug_str     0x0000059b       0x12 Objects - TCPIP Demo App - C32 - PIC32_ENET_SK_DM320004_INTERNAL_ETHERNET\TFTPc.o
 .debug_str     0x000005ad       0x12 Objects - TCPIP Demo App - C32 - PIC32_ENET_SK_DM320004_INTERNAL_ETHERNET\Tick.o
 .debug_str     0x000005bf       0x12 Objects - TCPIP Demo App - C32 - PIC32_ENET_SK_DM320004_INTERNAL_ETHERNET\UART2TCPBridge.o
 .debug_str     0x000005d1       0x12 Objects - TCPIP Demo App - C32 - PIC32_ENET_SK_DM320004_INTERNAL_ETHERNET\UART.o
 .debug_str     0x000005e3       0x48 Objects - TCPIP Demo App - C32 - PIC32_ENET_SK_DM320004_INTERNAL_ETHERNET\UDP.o
 .debug_str     0x0000062b       0x12 Objects - TCPIP Demo App - C32 - PIC32_ENET_SK_DM320004_INTERNAL_ETHERNET\UDPPerformanceTest.o
 .debug_str     0x0000063d       0x12 Objects - TCPIP Demo App - C32 - PIC32_ENET_SK_DM320004_INTERNAL_ETHERNET\ZeroconfHelper.o
 .debug_str     0x0000064f       0x12 Objects - TCPIP Demo App - C32 - PIC32_ENET_SK_DM320004_INTERNAL_ETHERNET\ZeroconfLinkLocal.o
 .debug_str     0x00000661       0x12 Objects - TCPIP Demo App - C32 - PIC32_ENET_SK_DM320004_INTERNAL_ETHERNET\ZeroconfMulticastDNS.o
 .debug_str     0x00000673       0x6d Objects - TCPIP Demo App - C32 - PIC32_ENET_SK_DM320004_INTERNAL_ETHERNET\CustomHTTPApp.o
 .debug_str     0x000006e0       0x12 Objects - TCPIP Demo App - C32 - PIC32_ENET_SK_DM320004_INTERNAL_ETHERNET\CustomSNMPApp.o
 .debug_str     0x000006f2       0x12 Objects - TCPIP Demo App - C32 - PIC32_ENET_SK_DM320004_INTERNAL_ETHERNET\CustomSSLCert.o
 .debug_str     0x00000704       0x30 Objects - TCPIP Demo App - C32 - PIC32_ENET_SK_DM320004_INTERNAL_ETHERNET\MainDemo.o
 .debug_str     0x00000734       0x12 Objects - TCPIP Demo App - C32 - PIC32_ENET_SK_DM320004_INTERNAL_ETHERNET\BerkeleyTCPClientDemo.o
 .debug_str     0x00000746       0x12 Objects - TCPIP Demo App - C32 - PIC32_ENET_SK_DM320004_INTERNAL_ETHERNET\BerkeleyTCPServerDemo.o
 .debug_str     0x00000758       0x12 Objects - TCPIP Demo App - C32 - PIC32_ENET_SK_DM320004_INTERNAL_ETHERNET\BerkeleyUDPClientDemo.o
 .debug_str     0x0000076a       0x12 Objects - TCPIP Demo App - C32 - PIC32_ENET_SK_DM320004_INTERNAL_ETHERNET\GenericTCPClient.o
 .debug_str     0x0000077c       0x12 Objects - TCPIP Demo App - C32 - PIC32_ENET_SK_DM320004_INTERNAL_ETHERNET\GenericTCPServer.o
 .debug_str     0x0000078e       0x12 Objects - TCPIP Demo App - C32 - PIC32_ENET_SK_DM320004_INTERNAL_ETHERNET\LegacyHTTPApp.o
 .debug_str     0x000007a0       0x12 Objects - TCPIP Demo App - C32 - PIC32_ENET_SK_DM320004_INTERNAL_ETHERNET\PingDemo.o
 .debug_str     0x000007b2       0x3d Objects - TCPIP Demo App - C32 - PIC32_ENET_SK_DM320004_INTERNAL_ETHERNET\SMTPDemo.o
 .debug_str     0x000007ef       0x12 Objects - TCPIP Demo App - C32 - PIC32_ENET_SK_DM320004_INTERNAL_ETHERNET\UARTConfig.o
 .debug_str     0x00000801       0x12 Objects - TCPIP Demo App - C32 - PIC32_ENET_SK_DM320004_INTERNAL_ETHERNET\MPFSImg2.o
 .debug_str     0x00000813       0x12 Objects - TCPIP Demo App - C32 - PIC32_ENET_SK_DM320004_INTERNAL_ETHERNET\MPFSImg.o
 .debug_str     0x00000825       0xec C:/Program Files (x86)/Microchip/MPLAB C32 Suite/bin/../lib/gcc/pic32mx/3.4.4/../../../../pic32mx/lib/size\libc.a(atoi.o)
                                 0xfe (size before relaxing)
 .debug_str     0x00000911       0x70 C:/Program Files (x86)/Microchip/MPLAB C32 Suite/bin/../lib/gcc/pic32mx/3.4.4/../../../../pic32mx/lib/size\libc.a(atol.o)
                                 0xfe (size before relaxing)
 .debug_str     0x00000981       0x7b C:/Program Files (x86)/Microchip/MPLAB C32 Suite/bin/../lib/gcc/pic32mx/3.4.4/../../../../pic32mx/lib/size\libc.a(calloc.o)
                                 0xef (size before relaxing)
 .debug_str     0x000009fc       0x6c C:/Program Files (x86)/Microchip/MPLAB C32 Suite/bin/../lib/gcc/pic32mx/3.4.4/../../../../pic32mx/lib/size\libc.a(ctype.o)
                                 0xd1 (size before relaxing)
 .debug_str     0x00000a68       0xd7 C:/Program Files (x86)/Microchip/MPLAB C32 Suite/bin/../lib/gcc/pic32mx/3.4.4/../../../../pic32mx/lib/size\libc.a(malloc.o)
                                0x157 (size before relaxing)
 .debug_str     0x00000b3f       0x74 C:/Program Files (x86)/Microchip/MPLAB C32 Suite/bin/../lib/gcc/pic32mx/3.4.4/../../../../pic32mx/lib/size\libc.a(strchr.o)
                                 0xe8 (size before relaxing)
 .debug_str     0x00000bb3       0x74 C:/Program Files (x86)/Microchip/MPLAB C32 Suite/bin/../lib/gcc/pic32mx/3.4.4/../../../../pic32mx/lib/size\libc.a(strstr.o)
                                 0xe8 (size before relaxing)
 .debug_str     0x00000c27       0xf2 C:/Program Files (x86)/Microchip/MPLAB C32 Suite/bin/../lib/gcc/pic32mx/3.4.4/../../../../pic32mx/lib/size\libc.a(sbrk.o)
                                0x19d (size before relaxing)
 .debug_str     0x00000d19       0xa9 C:/Program Files (x86)/Microchip/MPLAB C32 Suite/bin/../lib/gcc/pic32mx/3.4.4/../../../../pic32mx/lib/size\libc.a(default-bootstrap-exception-handler.o)
                                 0xf0 (size before relaxing)
 .debug_str     0x00000dc2       0x83 C:/Program Files (x86)/Microchip/MPLAB C32 Suite/bin/../lib/gcc/pic32mx/3.4.4/../../../../pic32mx/lib/size\libc.a(default-on-reset.o)
                                 0xca (size before relaxing)
 .debug_str     0x00000e45       0x8b C:/Program Files (x86)/Microchip/MPLAB C32 Suite/bin/../lib/gcc/pic32mx/3.4.4/../../../../pic32mx/lib/size\libc.a(default-on-bootstrap.o)
                                 0xd2 (size before relaxing)
 .debug_str     0x00000ed0       0x6c C:/Program Files (x86)/Microchip/MPLAB C32 Suite/bin/../lib/gcc/pic32mx/3.4.4/../../../../pic32mx/lib/size\libc.a(errno.o)
                                 0xb9 (size before relaxing)
 .debug_str     0x00000f3c       0x76 C:/Program Files (x86)/Microchip/MPLAB C32 Suite/bin/../lib/gcc/pic32mx/3.4.4/../../../../pic32mx/lib/size\libc.a(strncmp.o)
                                 0xf1 (size before relaxing)
 .debug_str     0x00000fb2       0x97 C:/Program Files (x86)/Microchip/MPLAB C32 Suite/bin/../lib/gcc/pic32mx/3.4.4/../../../../pic32mx/lib/size\libmchp_peripheral.a(read_core_timer_lib.o)
                                 0xde (size before relaxing)
 .debug_str     0x00001049       0xe1 C:/Program Files (x86)/Microchip/MPLAB C32 Suite/bin/../lib/gcc/pic32mx/3.4.4/../../../../pic32mx/lib/size\libmchp_peripheral_32MX795F512L.a(eth_ack_packet_lib.o)
                                0x137 (size before relaxing)
 .debug_str     0x0000112a       0xb3 C:/Program Files (x86)/Microchip/MPLAB C32 Suite/bin/../lib/gcc/pic32mx/3.4.4/../../../../pic32mx/lib/size\libmchp_peripheral_32MX795F512L.a(eth_descriptors_add_lib.o)
                                 0xfa (size before relaxing)
 .debug_str     0x000011dd       0x88 C:/Program Files (x86)/Microchip/MPLAB C32 Suite/bin/../lib/gcc/pic32mx/3.4.4/../../../../pic32mx/lib/size\libmchp_peripheral_32MX795F512L.a(eth_init_lib.o)
                                 0xcf (size before relaxing)
 .debug_str     0x00001265       0x8f C:/Program Files (x86)/Microchip/MPLAB C32 Suite/bin/../lib/gcc/pic32mx/3.4.4/../../../../pic32mx/lib/size\libmchp_peripheral_32MX795F512L.a(eth_mac_open_lib.o)
                                 0xd6 (size before relaxing)
 .debug_str     0x000012f4       0xc3 C:/Program Files (x86)/Microchip/MPLAB C32 Suite/bin/../lib/gcc/pic32mx/3.4.4/../../../../pic32mx/lib/size\libmchp_peripheral_32MX795F512L.a(eth_mac_set_address_max_lib.o)
                                0x10a (size before relaxing)
 .debug_str     0x000013b7       0xa0 C:/Program Files (x86)/Microchip/MPLAB C32 Suite/bin/../lib/gcc/pic32mx/3.4.4/../../../../pic32mx/lib/size\libmchp_peripheral_32MX795F512L.a(eth_rx_buffers_append_lib.o)
                                 0xe7 (size before relaxing)
 .debug_str     0x00001457       0xee C:/Program Files (x86)/Microchip/MPLAB C32 Suite/bin/../lib/gcc/pic32mx/3.4.4/../../../../pic32mx/lib/size\libmchp_peripheral_32MX795F512L.a(eth_rx_filters_lib.o)
                                0x135 (size before relaxing)
 .debug_str     0x00001545       0xa7 C:/Program Files (x86)/Microchip/MPLAB C32 Suite/bin/../lib/gcc/pic32mx/3.4.4/../../../../pic32mx/lib/size\libmchp_peripheral_32MX795F512L.a(eth_rx_get_packet_lib.o)
                                 0xee (size before relaxing)
 .debug_str     0x000015ec       0xa1 C:/Program Files (x86)/Microchip/MPLAB C32 Suite/bin/../lib/gcc/pic32mx/3.4.4/../../../../pic32mx/lib/size\libmchp_peripheral_32MX795F512L.a(eth_rx_set_buffer_size_lib.o)
                                 0xe8 (size before relaxing)
 .debug_str     0x0000168d       0xeb C:/Program Files (x86)/Microchip/MPLAB C32 Suite/bin/../lib/gcc/pic32mx/3.4.4/../../../../pic32mx/lib/size\libmchp_peripheral_32MX795F512L.a(eth_tx_packet_lib.o)
                                0x132 (size before relaxing)
 .debug_str     0x00001778       0xa0 C:/Program Files (x86)/Microchip/MPLAB C32 Suite/bin/../lib/gcc/pic32mx/3.4.4/../../../../pic32mx/lib/size\libmchp_peripheral_32MX795F512L.a(_eth_append_busy_list_lib.o)
                                 0xe7 (size before relaxing)
 .debug_str     0x00001818       0xe9 C:/Program Files (x86)/Microchip/MPLAB C32 Suite/bin/../lib/gcc/pic32mx/3.4.4/../../../../pic32mx/lib/size\libmchp_peripheral_32MX795F512L.a(eth_miim_access.o)
                                0x130 (size before relaxing)
 .debug_str     0x00001901       0x8e C:/Program Files (x86)/Microchip/MPLAB C32 Suite/bin/../lib/gcc/pic32mx/3.4.4/../../../../pic32mx/lib/size\libmchp_peripheral_32MX795F512L.a(soft_reset_lib.o)
                                 0xd5 (size before relaxing)
 .debug_str     0x0000198f       0x9e C:/Program Files (x86)/Microchip/MPLAB C32 Suite/bin/../lib/gcc/pic32mx/3.4.4/../../../../pic32mx/lib/size\libmchp_peripheral_32MX795F512L.a(pcache.o)
                                 0xe5 (size before relaxing)
 .debug_str     0x00001a2d       0xa3 C:/Program Files (x86)/Microchip/MPLAB C32 Suite/bin/../lib/gcc/pic32mx/3.4.4/../../../../pic32mx/lib/size\libmchp_peripheral_32MX795F512L.a(int_disable_interrupts_lib.o)
                                 0xea (size before relaxing)
 .debug_str     0x00001ad0       0xa3 C:/Program Files (x86)/Microchip/MPLAB C32 Suite/bin/../lib/gcc/pic32mx/3.4.4/../../../../pic32mx/lib/size\libmchp_peripheral_32MX795F512L.a(int_restore_interrupts_lib.o)
                                 0xea (size before relaxing)
 .debug_str     0x00001b73       0xa9 C:/Program Files (x86)/Microchip/MPLAB C32 Suite/bin/../lib/gcc/pic32mx/3.4.4/../../../../pic32mx/lib/size\libmchp_peripheral_32MX795F512L.a(int_enable_mv_int_lib.o)
                                 0xf0 (size before relaxing)
 .debug_str     0x00001c1c      0x113 C:/Program Files (x86)/Microchip/MPLAB C32 Suite/bin/../lib/gcc/pic32mx/3.4.4/../../../../pic32mx/lib/size\libmchp_peripheral_32MX795F512L.a(int_tbl_lib.o)
                                0x15a (size before relaxing)
 .debug_str     0x00001d2f       0xa7 C:/Program Files (x86)/Microchip/MPLAB C32 Suite/bin/../lib/gcc/pic32mx/3.4.4/../../../../pic32mx/lib/size\libmchp_peripheral_32MX795F512L.a(port_set_pins_digital_in_lib.o)
                                 0xee (size before relaxing)
 .debug_str     0x00001dd6       0xa9 C:/Program Files (x86)/Microchip/MPLAB C32 Suite/bin/../lib/gcc/pic32mx/3.4.4/../../../../pic32mx/lib/size\libmchp_peripheral_32MX795F512L.a(port_set_pins_digital_out_lib.o)
                                 0xf0 (size before relaxing)
 .debug_str     0x00001e7f       0xa1 C:/Program Files (x86)/Microchip/MPLAB C32 Suite/bin/../lib/gcc/pic32mx/3.4.4/../../../../pic32mx/lib/size\libmchp_peripheral_32MX795F512L.a(int_enable_interrupts_lib.o)
                                 0xe8 (size before relaxing)

.debug_loc
 *(.debug_loc)

.debug_macinfo  0x00000000     0xa01e
 *(.debug_macinfo)
 .debug_macinfo
                0x00000000      0xf2b C:/Program Files (x86)/Microchip/MPLAB C32 Suite/bin/../lib/gcc/pic32mx/3.4.4/../../../../pic32mx/lib/size\libc.a(atoi.o)
 .debug_macinfo
                0x00000f2b      0xf2b C:/Program Files (x86)/Microchip/MPLAB C32 Suite/bin/../lib/gcc/pic32mx/3.4.4/../../../../pic32mx/lib/size\libc.a(atol.o)
 .debug_macinfo
                0x00001e56      0xbcc C:/Program Files (x86)/Microchip/MPLAB C32 Suite/bin/../lib/gcc/pic32mx/3.4.4/../../../../pic32mx/lib/size\libc.a(calloc.o)
 .debug_macinfo
                0x00002a22      0xcef C:/Program Files (x86)/Microchip/MPLAB C32 Suite/bin/../lib/gcc/pic32mx/3.4.4/../../../../pic32mx/lib/size\libc.a(ctype.o)
 .debug_macinfo
                0x00003711      0xcca C:/Program Files (x86)/Microchip/MPLAB C32 Suite/bin/../lib/gcc/pic32mx/3.4.4/../../../../pic32mx/lib/size\libc.a(malloc.o)
 .debug_macinfo
                0x000043db      0xafc C:/Program Files (x86)/Microchip/MPLAB C32 Suite/bin/../lib/gcc/pic32mx/3.4.4/../../../../pic32mx/lib/size\libc.a(strchr.o)
 .debug_macinfo
                0x00004ed7      0xafc C:/Program Files (x86)/Microchip/MPLAB C32 Suite/bin/../lib/gcc/pic32mx/3.4.4/../../../../pic32mx/lib/size\libc.a(strstr.o)
 .debug_macinfo
                0x000059d3     0x11af C:/Program Files (x86)/Microchip/MPLAB C32 Suite/bin/../lib/gcc/pic32mx/3.4.4/../../../../pic32mx/lib/size\libc.a(sbrk.o)
 .debug_macinfo
                0x00006b82      0x945 C:/Program Files (x86)/Microchip/MPLAB C32 Suite/bin/../lib/gcc/pic32mx/3.4.4/../../../../pic32mx/lib/size\libc.a(default-bootstrap-exception-handler.o)
 .debug_macinfo
                0x000074c7      0x945 C:/Program Files (x86)/Microchip/MPLAB C32 Suite/bin/../lib/gcc/pic32mx/3.4.4/../../../../pic32mx/lib/size\libc.a(default-on-reset.o)
 .debug_macinfo
                0x00007e0c      0x945 C:/Program Files (x86)/Microchip/MPLAB C32 Suite/bin/../lib/gcc/pic32mx/3.4.4/../../../../pic32mx/lib/size\libc.a(default-on-bootstrap.o)
 .debug_macinfo
                0x00008751      0xdd1 C:/Program Files (x86)/Microchip/MPLAB C32 Suite/bin/../lib/gcc/pic32mx/3.4.4/../../../../pic32mx/lib/size\libc.a(errno.o)
 .debug_macinfo
                0x00009522      0xafc C:/Program Files (x86)/Microchip/MPLAB C32 Suite/bin/../lib/gcc/pic32mx/3.4.4/../../../../pic32mx/lib/size\libc.a(strncmp.o)

.debug_weaknames
 *(.debug_weaknames)

.debug_funcnames
 *(.debug_funcnames)

.debug_typenames
 *(.debug_typenames)

.debug_varnames
 *(.debug_varnames)
OUTPUT(TCPIP Demo App - C32 - PIC32_ENET_SK_DM320004_INTERNAL_ETHERNET.elf elf32-tradlittlemips)
